
./vacation.seq:     file format elf64-x86-64


Disassembly of section .init:

0000000000400bc0 <_init>:
  400bc0:	48 83 ec 08          	sub    $0x8,%rsp
  400bc4:	e8 2f 0b 00 00       	callq  4016f8 <call_gmon_start>
  400bc9:	e8 22 0c 00 00       	callq  4017f0 <frame_dummy>
  400bce:	e8 0d 7f 00 00       	callq  408ae0 <__do_global_ctors_aux>
  400bd3:	48 83 c4 08          	add    $0x8,%rsp
  400bd7:	c3                   	retq   

Disassembly of section .plt:

0000000000400be0 <pthread_getspecific@plt-0x10>:
  400be0:	ff 35 22 b6 20 00    	pushq  0x20b622(%rip)        # 60c208 <_GLOBAL_OFFSET_TABLE_+0x8>
  400be6:	ff 25 24 b6 20 00    	jmpq   *0x20b624(%rip)        # 60c210 <_GLOBAL_OFFSET_TABLE_+0x10>
  400bec:	0f 1f 40 00          	nopl   0x0(%rax)

0000000000400bf0 <pthread_getspecific@plt>:
  400bf0:	ff 25 22 b6 20 00    	jmpq   *0x20b622(%rip)        # 60c218 <_GLOBAL_OFFSET_TABLE_+0x18>
  400bf6:	68 00 00 00 00       	pushq  $0x0
  400bfb:	e9 e0 ff ff ff       	jmpq   400be0 <_init+0x20>

0000000000400c00 <printf@plt>:
  400c00:	ff 25 1a b6 20 00    	jmpq   *0x20b61a(%rip)        # 60c220 <_GLOBAL_OFFSET_TABLE_+0x20>
  400c06:	68 01 00 00 00       	pushq  $0x1
  400c0b:	e9 d0 ff ff ff       	jmpq   400be0 <_init+0x20>

0000000000400c10 <pthread_setspecific@plt>:
  400c10:	ff 25 12 b6 20 00    	jmpq   *0x20b612(%rip)        # 60c228 <_GLOBAL_OFFSET_TABLE_+0x28>
  400c16:	68 02 00 00 00       	pushq  $0x2
  400c1b:	e9 c0 ff ff ff       	jmpq   400be0 <_init+0x20>

0000000000400c20 <puts@plt>:
  400c20:	ff 25 0a b6 20 00    	jmpq   *0x20b60a(%rip)        # 60c230 <_GLOBAL_OFFSET_TABLE_+0x30>
  400c26:	68 03 00 00 00       	pushq  $0x3
  400c2b:	e9 b0 ff ff ff       	jmpq   400be0 <_init+0x20>

0000000000400c30 <pthread_cond_signal@plt>:
  400c30:	ff 25 02 b6 20 00    	jmpq   *0x20b602(%rip)        # 60c238 <_GLOBAL_OFFSET_TABLE_+0x38>
  400c36:	68 04 00 00 00       	pushq  $0x4
  400c3b:	e9 a0 ff ff ff       	jmpq   400be0 <_init+0x20>

0000000000400c40 <exit@plt>:
  400c40:	ff 25 fa b5 20 00    	jmpq   *0x20b5fa(%rip)        # 60c240 <_GLOBAL_OFFSET_TABLE_+0x40>
  400c46:	68 05 00 00 00       	pushq  $0x5
  400c4b:	e9 90 ff ff ff       	jmpq   400be0 <_init+0x20>

0000000000400c50 <__assert_fail@plt>:
  400c50:	ff 25 f2 b5 20 00    	jmpq   *0x20b5f2(%rip)        # 60c248 <_GLOBAL_OFFSET_TABLE_+0x48>
  400c56:	68 06 00 00 00       	pushq  $0x6
  400c5b:	e9 80 ff ff ff       	jmpq   400be0 <_init+0x20>

0000000000400c60 <gettimeofday@plt>:
  400c60:	ff 25 ea b5 20 00    	jmpq   *0x20b5ea(%rip)        # 60c250 <_GLOBAL_OFFSET_TABLE_+0x50>
  400c66:	68 07 00 00 00       	pushq  $0x7
  400c6b:	e9 70 ff ff ff       	jmpq   400be0 <_init+0x20>

0000000000400c70 <getopt@plt>:
  400c70:	ff 25 e2 b5 20 00    	jmpq   *0x20b5e2(%rip)        # 60c258 <_GLOBAL_OFFSET_TABLE_+0x58>
  400c76:	68 08 00 00 00       	pushq  $0x8
  400c7b:	e9 60 ff ff ff       	jmpq   400be0 <_init+0x20>

0000000000400c80 <malloc@plt>:
  400c80:	ff 25 da b5 20 00    	jmpq   *0x20b5da(%rip)        # 60c260 <_GLOBAL_OFFSET_TABLE_+0x60>
  400c86:	68 09 00 00 00       	pushq  $0x9
  400c8b:	e9 50 ff ff ff       	jmpq   400be0 <_init+0x20>

0000000000400c90 <__libc_start_main@plt>:
  400c90:	ff 25 d2 b5 20 00    	jmpq   *0x20b5d2(%rip)        # 60c268 <_GLOBAL_OFFSET_TABLE_+0x68>
  400c96:	68 0a 00 00 00       	pushq  $0xa
  400c9b:	e9 40 ff ff ff       	jmpq   400be0 <_init+0x20>

0000000000400ca0 <pthread_mutex_init@plt>:
  400ca0:	ff 25 ca b5 20 00    	jmpq   *0x20b5ca(%rip)        # 60c270 <_GLOBAL_OFFSET_TABLE_+0x70>
  400ca6:	68 0b 00 00 00       	pushq  $0xb
  400cab:	e9 30 ff ff ff       	jmpq   400be0 <_init+0x20>

0000000000400cb0 <free@plt>:
  400cb0:	ff 25 c2 b5 20 00    	jmpq   *0x20b5c2(%rip)        # 60c278 <_GLOBAL_OFFSET_TABLE_+0x78>
  400cb6:	68 0c 00 00 00       	pushq  $0xc
  400cbb:	e9 20 ff ff ff       	jmpq   400be0 <_init+0x20>

0000000000400cc0 <pthread_create@plt>:
  400cc0:	ff 25 ba b5 20 00    	jmpq   *0x20b5ba(%rip)        # 60c280 <_GLOBAL_OFFSET_TABLE_+0x80>
  400cc6:	68 0d 00 00 00       	pushq  $0xd
  400ccb:	e9 10 ff ff ff       	jmpq   400be0 <_init+0x20>

0000000000400cd0 <pthread_cond_init@plt>:
  400cd0:	ff 25 b2 b5 20 00    	jmpq   *0x20b5b2(%rip)        # 60c288 <_GLOBAL_OFFSET_TABLE_+0x88>
  400cd6:	68 0e 00 00 00       	pushq  $0xe
  400cdb:	e9 00 ff ff ff       	jmpq   400be0 <_init+0x20>

0000000000400ce0 <pthread_join@plt>:
  400ce0:	ff 25 aa b5 20 00    	jmpq   *0x20b5aa(%rip)        # 60c290 <_GLOBAL_OFFSET_TABLE_+0x90>
  400ce6:	68 0f 00 00 00       	pushq  $0xf
  400ceb:	e9 f0 fe ff ff       	jmpq   400be0 <_init+0x20>

0000000000400cf0 <strtol@plt>:
  400cf0:	ff 25 a2 b5 20 00    	jmpq   *0x20b5a2(%rip)        # 60c298 <_GLOBAL_OFFSET_TABLE_+0x98>
  400cf6:	68 10 00 00 00       	pushq  $0x10
  400cfb:	e9 e0 fe ff ff       	jmpq   400be0 <_init+0x20>

0000000000400d00 <pthread_cond_wait@plt>:
  400d00:	ff 25 9a b5 20 00    	jmpq   *0x20b59a(%rip)        # 60c2a0 <_GLOBAL_OFFSET_TABLE_+0xa0>
  400d06:	68 11 00 00 00       	pushq  $0x11
  400d0b:	e9 d0 fe ff ff       	jmpq   400be0 <_init+0x20>

0000000000400d10 <pthread_attr_init@plt>:
  400d10:	ff 25 92 b5 20 00    	jmpq   *0x20b592(%rip)        # 60c2a8 <_GLOBAL_OFFSET_TABLE_+0xa8>
  400d16:	68 12 00 00 00       	pushq  $0x12
  400d1b:	e9 c0 fe ff ff       	jmpq   400be0 <_init+0x20>

0000000000400d20 <pthread_mutex_lock@plt>:
  400d20:	ff 25 8a b5 20 00    	jmpq   *0x20b58a(%rip)        # 60c2b0 <_GLOBAL_OFFSET_TABLE_+0xb0>
  400d26:	68 13 00 00 00       	pushq  $0x13
  400d2b:	e9 b0 fe ff ff       	jmpq   400be0 <_init+0x20>

0000000000400d30 <pthread_key_create@plt>:
  400d30:	ff 25 82 b5 20 00    	jmpq   *0x20b582(%rip)        # 60c2b8 <_GLOBAL_OFFSET_TABLE_+0xb8>
  400d36:	68 14 00 00 00       	pushq  $0x14
  400d3b:	e9 a0 fe ff ff       	jmpq   400be0 <_init+0x20>

0000000000400d40 <fprintf@plt>:
  400d40:	ff 25 7a b5 20 00    	jmpq   *0x20b57a(%rip)        # 60c2c0 <_GLOBAL_OFFSET_TABLE_+0xc0>
  400d46:	68 15 00 00 00       	pushq  $0x15
  400d4b:	e9 90 fe ff ff       	jmpq   400be0 <_init+0x20>

0000000000400d50 <pthread_mutex_unlock@plt>:
  400d50:	ff 25 72 b5 20 00    	jmpq   *0x20b572(%rip)        # 60c2c8 <_GLOBAL_OFFSET_TABLE_+0xc8>
  400d56:	68 16 00 00 00       	pushq  $0x16
  400d5b:	e9 80 fe ff ff       	jmpq   400be0 <_init+0x20>

0000000000400d60 <fflush@plt>:
  400d60:	ff 25 6a b5 20 00    	jmpq   *0x20b56a(%rip)        # 60c2d0 <_GLOBAL_OFFSET_TABLE_+0xd0>
  400d66:	68 17 00 00 00       	pushq  $0x17
  400d6b:	e9 70 fe ff ff       	jmpq   400be0 <_init+0x20>

Disassembly of section .text:

0000000000400d70 <reserve.part.0>:
 * -- Customer is not allowed to reserve same (type, id) multiple times
 * -- Returns TRUE on success, else FALSE
 * =============================================================================
 */
static bool_t
reserve (TM_ARGDECL
  400d70:	50                   	push   %rax
            (long)TM_SHARED_READ(reservationPtr->price)))
    {
        /* Undo previous successful reservation */
        bool_t status = RESERVATION_CANCEL(reservationPtr);
        if (status == FALSE) {
            TM_RESTART();
  400d71:	b9 37 8d 40 00       	mov    $0x408d37,%ecx
  400d76:	ba 9f 02 00 00       	mov    $0x29f,%edx
  400d7b:	be 32 8c 40 00       	mov    $0x408c32,%esi
  400d80:	bf f9 8d 40 00       	mov    $0x408df9,%edi
  400d85:	e8 c6 fe ff ff       	callq  400c50 <__assert_fail@plt>

0000000000400d8a <cancel.part.1>:
 * -- Customer is not allowed to cancel multiple times
 * -- Returns TRUE on success, else FALSE
 * =============================================================================
 */
static bool_t
cancel (TM_ARGDECL
  400d8a:	52                   	push   %rdx

    if (!CUSTOMER_REMOVE_RESERVATION_INFO(customerPtr, type, id)) {
        /* Undo previous successful cancellation */
        bool_t status = RESERVATION_MAKE(reservationPtr);
        if (status == FALSE) {
            TM_RESTART();
  400d8b:	b9 30 8d 40 00       	mov    $0x408d30,%ecx
  400d90:	ba ff 02 00 00       	mov    $0x2ff,%edx
  400d95:	be 32 8c 40 00       	mov    $0x408c32,%esi
  400d9a:	bf f9 8d 40 00       	mov    $0x408df9,%edi
  400d9f:	e8 ac fe ff ff       	callq  400c50 <__assert_fail@plt>

0000000000400da4 <checkReservation.part.0>:
 * checkReservation
 * -- Check if consistent
 * =============================================================================
 */
static void
checkReservation (TM_ARGDECL  reservation_t* reservationPtr)
  400da4:	50                   	push   %rax
{
    long numUsed = (long)TM_SHARED_READ(reservationPtr->numUsed);
    if (numUsed < 0) {
        TM_RESTART();
  400da5:	b9 d0 8e 40 00       	mov    $0x408ed0,%ecx
  400daa:	ba 93 00 00 00       	mov    $0x93,%edx
  400daf:	be d0 8d 40 00       	mov    $0x408dd0,%esi
  400db4:	bf f9 8d 40 00       	mov    $0x408df9,%edi
  400db9:	e8 92 fe ff ff       	callq  400c50 <__assert_fail@plt>

0000000000400dbe <checkReservation_seq.part.1>:
#define CHECK_RESERVATION(reservation) \
    checkReservation(TM_ARG  reservation)


static void
checkReservation_seq (reservation_t* reservationPtr)
  400dbe:	52                   	push   %rdx
{
    assert(reservationPtr->numUsed >= 0);
  400dbf:	b9 b0 8e 40 00       	mov    $0x408eb0,%ecx
  400dc4:	ba b1 00 00 00       	mov    $0xb1,%edx
  400dc9:	be d0 8d 40 00       	mov    $0x408dd0,%esi
  400dce:	bf de 8d 40 00       	mov    $0x408dde,%edi
  400dd3:	e8 78 fe ff ff       	callq  400c50 <__assert_fail@plt>
  400dd8:	0f 1f 84 00 00 00 00 	nopl   0x0(%rax,%rax,1)
  400ddf:	00 

0000000000400de0 <main>:
/* =============================================================================
 * main
 * =============================================================================
 */
MAIN(argc, argv)
{
  400de0:	41 57                	push   %r15
  400de2:	41 56                	push   %r14
  400de4:	41 55                	push   %r13
  400de6:	41 bd 01 00 00 00    	mov    $0x1,%r13d
  400dec:	41 54                	push   %r12
  400dee:	41 89 fc             	mov    %edi,%r12d
  400df1:	55                   	push   %rbp
  400df2:	48 89 f5             	mov    %rsi,%rbp
  400df5:	53                   	push   %rbx
  400df6:	48 83 ec 68          	sub    $0x68,%rsp
parseArgs (long argc, char* const argv[])
{
    long i;
    long opt;

    opterr = 0;
  400dfa:	c7 05 04 b5 20 00 00 	movl   $0x0,0x20b504(%rip)        # 60c308 <opterr@@GLIBC_2.2.5>
  400e01:	00 00 00 
 * =============================================================================
 */
static void
setDefaultParams ()
{
    global_params[PARAM_CLIENTS]      = PARAM_DEFAULT_CLIENTS;
  400e04:	f2 0f 10 25 a4 85 00 	movsd  0x85a4(%rip),%xmm4        # 4093b0 <__PRETTY_FUNCTION__.3923+0x1e>
  400e0b:	00 
    global_params[PARAM_NUMBER]       = PARAM_DEFAULT_NUMBER;
  400e0c:	f2 0f 10 2d a4 85 00 	movsd  0x85a4(%rip),%xmm5        # 4093b8 <__PRETTY_FUNCTION__.3923+0x26>
  400e13:	00 
 * =============================================================================
 */
static void
setDefaultParams ()
{
    global_params[PARAM_CLIENTS]      = PARAM_DEFAULT_CLIENTS;
  400e14:	f2 0f 11 25 1c b9 20 	movsd  %xmm4,0x20b91c(%rip)        # 60c738 <global_params+0x318>
  400e1b:	00 
    global_params[PARAM_NUMBER]       = PARAM_DEFAULT_NUMBER;
  400e1c:	f2 0f 11 2d 6c b9 20 	movsd  %xmm5,0x20b96c(%rip)        # 60c790 <global_params+0x370>
  400e23:	00 
    global_params[PARAM_QUERIES]      = PARAM_DEFAULT_QUERIES;
  400e24:	f2 0f 10 35 94 85 00 	movsd  0x8594(%rip),%xmm6        # 4093c0 <__PRETTY_FUNCTION__.3923+0x2e>
  400e2b:	00 
    global_params[PARAM_RELATIONS]    = PARAM_DEFAULT_RELATIONS;
  400e2c:	f2 0f 10 3d 94 85 00 	movsd  0x8594(%rip),%xmm7        # 4093c8 <__PRETTY_FUNCTION__.3923+0x36>
  400e33:	00 
    global_params[PARAM_TRANSACTIONS] = PARAM_DEFAULT_TRANSACTIONS;
  400e34:	f2 0f 10 25 94 85 00 	movsd  0x8594(%rip),%xmm4        # 4093d0 <__PRETTY_FUNCTION__.3923+0x3e>
  400e3b:	00 
    global_params[PARAM_USER]         = PARAM_DEFAULT_USER;
  400e3c:	f2 0f 10 2d 94 85 00 	movsd  0x8594(%rip),%xmm5        # 4093d8 <__PRETTY_FUNCTION__.3923+0x46>
  400e43:	00 
static void
setDefaultParams ()
{
    global_params[PARAM_CLIENTS]      = PARAM_DEFAULT_CLIENTS;
    global_params[PARAM_NUMBER]       = PARAM_DEFAULT_NUMBER;
    global_params[PARAM_QUERIES]      = PARAM_DEFAULT_QUERIES;
  400e44:	f2 0f 11 35 5c b9 20 	movsd  %xmm6,0x20b95c(%rip)        # 60c7a8 <global_params+0x388>
  400e4b:	00 
    global_params[PARAM_RELATIONS]    = PARAM_DEFAULT_RELATIONS;
  400e4c:	f2 0f 11 3d 5c b9 20 	movsd  %xmm7,0x20b95c(%rip)        # 60c7b0 <global_params+0x390>
  400e53:	00 
    global_params[PARAM_TRANSACTIONS] = PARAM_DEFAULT_TRANSACTIONS;
  400e54:	f2 0f 11 25 64 b9 20 	movsd  %xmm4,0x20b964(%rip)        # 60c7c0 <global_params+0x3a0>
  400e5b:	00 
    global_params[PARAM_USER]         = PARAM_DEFAULT_USER;
  400e5c:	f2 0f 11 2d 64 b9 20 	movsd  %xmm5,0x20b964(%rip)        # 60c7c8 <global_params+0x3a8>
  400e63:	00 
  400e64:	0f 1f 40 00          	nopl   0x0(%rax)

    opterr = 0;

    setDefaultParams();

    while ((opt = getopt(argc, argv, "c:n:q:r:t:u:")) != -1) {
  400e68:	ba 06 8f 40 00       	mov    $0x408f06,%edx
  400e6d:	48 89 ee             	mov    %rbp,%rsi
  400e70:	44 89 e7             	mov    %r12d,%edi
  400e73:	e8 f8 fd ff ff       	callq  400c70 <getopt@plt>
  400e78:	48 63 d8             	movslq %eax,%rbx
  400e7b:	83 fb ff             	cmp    $0xffffffff,%ebx
  400e7e:	74 48                	je     400ec8 <main+0xe8>
  400e80:	8d 4b 9d             	lea    -0x63(%rbx),%ecx
  400e83:	83 f9 12             	cmp    $0x12,%ecx
  400e86:	77 0d                	ja     400e95 <main+0xb5>
  400e88:	4c 89 e8             	mov    %r13,%rax
  400e8b:	48 d3 e0             	shl    %cl,%rax
  400e8e:	a9 01 c8 06 00       	test   $0x6c801,%eax
  400e93:	75 0b                	jne    400ea0 <main+0xc0>
            case 'u':
                global_params[(unsigned char)opt] = atol(optarg);
                break;
            case '?':
            default:
                opterr++;
  400e95:	83 05 6c b4 20 00 01 	addl   $0x1,0x20b46c(%rip)        # 60c308 <opterr@@GLIBC_2.2.5>
  400e9c:	eb ca                	jmp    400e68 <main+0x88>
  400e9e:	66 90                	xchg   %ax,%ax
  return (int) strtol (__nptr, (char **) NULL, 10);
}
__extern_inline long int
__NTH (atol (__const char *__nptr))
{
  return strtol (__nptr, (char **) NULL, 10);
  400ea0:	48 8b 3d 79 b4 20 00 	mov    0x20b479(%rip),%rdi        # 60c320 <optarg@@GLIBC_2.2.5>
  400ea7:	ba 0a 00 00 00       	mov    $0xa,%edx
  400eac:	31 f6                	xor    %esi,%esi
  400eae:	e8 3d fe ff ff       	callq  400cf0 <strtol@plt>
            case 'n':
            case 'q':
            case 'r':
            case 't':
            case 'u':
                global_params[(unsigned char)opt] = atol(optarg);
  400eb3:	f2 48 0f 2a c0       	cvtsi2sd %rax,%xmm0
  400eb8:	f2 0f 11 04 dd 20 c4 	movsd  %xmm0,0x60c420(,%rbx,8)
  400ebf:	60 00 
  400ec1:	eb a5                	jmp    400e68 <main+0x88>
  400ec3:	0f 1f 44 00 00       	nopl   0x0(%rax,%rax,1)
                opterr++;
                break;
        }
    }

    for (i = optind; i < argc; i++) {
  400ec8:	8b 05 32 b4 20 00    	mov    0x20b432(%rip),%eax        # 60c300 <optind@@GLIBC_2.2.5>
  400ece:	4d 63 ec             	movslq %r12d,%r13
  400ed1:	41 39 c4             	cmp    %eax,%r12d
  400ed4:	48 63 d8             	movslq %eax,%rbx
  400ed7:	0f 8e 69 06 00 00    	jle    401546 <main+0x766>
  400edd:	0f 1f 00             	nopl   (%rax)
        fprintf(stderr, "Non-option argument: %s\n", argv[i]);
  400ee0:	48 8b 54 dd 00       	mov    0x0(%rbp,%rbx,8),%rdx
  400ee5:	48 8b 3d 3c b4 20 00 	mov    0x20b43c(%rip),%rdi        # 60c328 <stderr@@GLIBC_2.2.5>
  400eec:	31 c0                	xor    %eax,%eax
  400eee:	be 13 8f 40 00       	mov    $0x408f13,%esi
  400ef3:	48 83 c3 01          	add    $0x1,%rbx
  400ef7:	e8 44 fe ff ff       	callq  400d40 <fprintf@plt>
        opterr++;
  400efc:	8b 05 06 b4 20 00    	mov    0x20b406(%rip),%eax        # 60c308 <opterr@@GLIBC_2.2.5>
  400f02:	83 c0 01             	add    $0x1,%eax
                opterr++;
                break;
        }
    }

    for (i = optind; i < argc; i++) {
  400f05:	4c 39 eb             	cmp    %r13,%rbx
        fprintf(stderr, "Non-option argument: %s\n", argv[i]);
        opterr++;
  400f08:	89 05 fa b3 20 00    	mov    %eax,0x20b3fa(%rip)        # 60c308 <opterr@@GLIBC_2.2.5>
                opterr++;
                break;
        }
    }

    for (i = optind; i < argc; i++) {
  400f0e:	75 d0                	jne    400ee0 <main+0x100>
        fprintf(stderr, "Non-option argument: %s\n", argv[i]);
        opterr++;
    }

    if (opterr) {
  400f10:	85 c0                	test   %eax,%eax
  400f12:	0f 85 de 06 00 00    	jne    4015f6 <main+0x816>
        &addCustomer
    };
    long t;
    long numTable = sizeof(manager_add) / sizeof(manager_add[0]);

    printf("Initializing manager... ");
  400f18:	bf 41 8f 40 00       	mov    $0x408f41,%edi
  400f1d:	31 c0                	xor    %eax,%eax
    manager_t* managerPtr;
    long i;
    long numRelation;
    random_t* randomPtr;
    long* ids;
    bool_t (*manager_add[])(manager_t*, long, long, long) = {
  400f1f:	48 c7 44 24 40 f0 24 	movq   $0x4024f0,0x40(%rsp)
  400f26:	40 00 
  400f28:	48 c7 44 24 48 c0 2a 	movq   $0x402ac0,0x48(%rsp)
  400f2f:	40 00 
  400f31:	48 c7 44 24 50 d0 27 	movq   $0x4027d0,0x50(%rsp)
  400f38:	40 00 
  400f3a:	48 c7 44 24 58 e0 39 	movq   $0x4039e0,0x58(%rsp)
  400f41:	40 00 
        &addCustomer
    };
    long t;
    long numTable = sizeof(manager_add) / sizeof(manager_add[0]);

    printf("Initializing manager... ");
  400f43:	e8 b8 fc ff ff       	callq  400c00 <printf@plt>
    fflush(stdout);
  400f48:	48 8b 3d e1 b3 20 00 	mov    0x20b3e1(%rip),%rdi        # 60c330 <stdout@@GLIBC_2.2.5>
  400f4f:	e8 0c fe ff ff       	callq  400d60 <fflush@plt>

    randomPtr = random_alloc();
  400f54:	31 c0                	xor    %eax,%eax
  400f56:	e8 a5 41 00 00       	callq  405100 <random_alloc>
    assert(randomPtr != NULL);
  400f5b:	48 85 c0             	test   %rax,%rax
    long numTable = sizeof(manager_add) / sizeof(manager_add[0]);

    printf("Initializing manager... ");
    fflush(stdout);

    randomPtr = random_alloc();
  400f5e:	48 89 c5             	mov    %rax,%rbp
    assert(randomPtr != NULL);
  400f61:	0f 84 76 06 00 00    	je     4015dd <main+0x7fd>

    managerPtr = manager_alloc();
  400f67:	31 c0                	xor    %eax,%eax
  400f69:	e8 22 11 00 00       	callq  402090 <manager_alloc>
    assert(managerPtr != NULL);
  400f6e:	48 85 c0             	test   %rax,%rax
    fflush(stdout);

    randomPtr = random_alloc();
    assert(randomPtr != NULL);

    managerPtr = manager_alloc();
  400f71:	48 89 04 24          	mov    %rax,(%rsp)
    assert(managerPtr != NULL);
  400f75:	0f 84 05 07 00 00    	je     401680 <main+0x8a0>

    numRelation = (long)global_params[PARAM_RELATIONS];
  400f7b:	f2 44 0f 10 15 2c b8 	movsd  0x20b82c(%rip),%xmm10        # 60c7b0 <global_params+0x390>
  400f82:	20 00 
  400f84:	f2 49 0f 2c da       	cvttsd2si %xmm10,%rbx
    ids = (long*)malloc(numRelation * sizeof(long));
  400f89:	48 8d 3c dd 00 00 00 	lea    0x0(,%rbx,8),%rdi
  400f90:	00 
  400f91:	e8 ea fc ff ff       	callq  400c80 <malloc@plt>
    for (i = 0; i < numRelation; i++) {
  400f96:	48 85 db             	test   %rbx,%rbx

    managerPtr = manager_alloc();
    assert(managerPtr != NULL);

    numRelation = (long)global_params[PARAM_RELATIONS];
    ids = (long*)malloc(numRelation * sizeof(long));
  400f99:	49 89 c4             	mov    %rax,%r12
    for (i = 0; i < numRelation; i++) {
  400f9c:	0f 8e 53 01 00 00    	jle    4010f5 <main+0x315>
  400fa2:	48 c1 e0 3c          	shl    $0x3c,%rax
  400fa6:	48 c1 e8 3f          	shr    $0x3f,%rax
  400faa:	48 39 c3             	cmp    %rax,%rbx
  400fad:	48 0f 46 c3          	cmovbe %rbx,%rax
  400fb1:	48 83 fb 0a          	cmp    $0xa,%rbx
  400fb5:	48 89 c2             	mov    %rax,%rdx
  400fb8:	48 89 d8             	mov    %rbx,%rax
  400fbb:	0f 87 70 05 00 00    	ja     401531 <main+0x751>
  400fc1:	48 83 f8 01          	cmp    $0x1,%rax
        ids[i] = i + 1;
  400fc5:	49 c7 04 24 01 00 00 	movq   $0x1,(%r12)
  400fcc:	00 
  400fcd:	0f 86 ce 05 00 00    	jbe    4015a1 <main+0x7c1>
  400fd3:	48 83 f8 02          	cmp    $0x2,%rax
  400fd7:	49 c7 44 24 08 02 00 	movq   $0x2,0x8(%r12)
  400fde:	00 00 
  400fe0:	0f 86 93 05 00 00    	jbe    401579 <main+0x799>
  400fe6:	48 83 f8 03          	cmp    $0x3,%rax
  400fea:	49 c7 44 24 10 03 00 	movq   $0x3,0x10(%r12)
  400ff1:	00 00 
  400ff3:	0f 86 8a 05 00 00    	jbe    401583 <main+0x7a3>
  400ff9:	48 83 f8 04          	cmp    $0x4,%rax
  400ffd:	49 c7 44 24 18 04 00 	movq   $0x4,0x18(%r12)
  401004:	00 00 
  401006:	0f 86 45 05 00 00    	jbe    401551 <main+0x771>
  40100c:	48 83 f8 05          	cmp    $0x5,%rax
  401010:	49 c7 44 24 20 05 00 	movq   $0x5,0x20(%r12)
  401017:	00 00 
  401019:	0f 86 3c 05 00 00    	jbe    40155b <main+0x77b>
  40101f:	48 83 f8 06          	cmp    $0x6,%rax
  401023:	49 c7 44 24 28 06 00 	movq   $0x6,0x28(%r12)
  40102a:	00 00 
  40102c:	0f 86 33 05 00 00    	jbe    401565 <main+0x785>
  401032:	48 83 f8 07          	cmp    $0x7,%rax
  401036:	49 c7 44 24 30 07 00 	movq   $0x7,0x30(%r12)
  40103d:	00 00 
  40103f:	0f 86 2a 05 00 00    	jbe    40156f <main+0x78f>
  401045:	48 83 f8 08          	cmp    $0x8,%rax
  401049:	49 c7 44 24 38 08 00 	movq   $0x8,0x38(%r12)
  401050:	00 00 
  401052:	0f 86 35 05 00 00    	jbe    40158d <main+0x7ad>
  401058:	48 83 f8 09          	cmp    $0x9,%rax
  40105c:	49 c7 44 24 40 09 00 	movq   $0x9,0x40(%r12)
  401063:	00 00 
  401065:	0f 86 2c 05 00 00    	jbe    401597 <main+0x7b7>
  40106b:	49 c7 44 24 48 0a 00 	movq   $0xa,0x48(%r12)
  401072:	00 00 
  401074:	b9 0a 00 00 00       	mov    $0xa,%ecx
  401079:	48 39 c3             	cmp    %rax,%rbx
  40107c:	74 77                	je     4010f5 <main+0x315>
  40107e:	48 89 df             	mov    %rbx,%rdi
  401081:	48 29 c7             	sub    %rax,%rdi
  401084:	48 89 fe             	mov    %rdi,%rsi
  401087:	48 d1 ee             	shr    %rsi
  40108a:	49 89 f0             	mov    %rsi,%r8
  40108d:	4d 01 c0             	add    %r8,%r8
  401090:	74 5b                	je     4010ed <main+0x30d>
  401092:	48 8d 51 01          	lea    0x1(%rcx),%rdx
    managerPtr = manager_alloc();
    assert(managerPtr != NULL);

    numRelation = (long)global_params[PARAM_RELATIONS];
    ids = (long*)malloc(numRelation * sizeof(long));
    for (i = 0; i < numRelation; i++) {
  401096:	48 89 4c 24 10       	mov    %rcx,0x10(%rsp)
  40109b:	f3 0f 7e 44 24 10    	movq   0x10(%rsp),%xmm0
  4010a1:	48 89 54 24 08       	mov    %rdx,0x8(%rsp)
  4010a6:	49 8d 14 c4          	lea    (%r12,%rax,8),%rdx
  4010aa:	31 c0                	xor    %eax,%eax
  4010ac:	66 0f 6f 1d 3c 83 00 	movdqa 0x833c(%rip),%xmm3        # 4093f0 <__PRETTY_FUNCTION__.3923+0x5e>
  4010b3:	00 
  4010b4:	0f 16 44 24 08       	movhps 0x8(%rsp),%xmm0
  4010b9:	66 0f 6f 15 3f 83 00 	movdqa 0x833f(%rip),%xmm2        # 409400 <__PRETTY_FUNCTION__.3923+0x6e>
  4010c0:	00 
  4010c1:	66 0f 6f c8          	movdqa %xmm0,%xmm1
  4010c5:	48 83 c0 01          	add    $0x1,%rax
        ids[i] = i + 1;
  4010c9:	66 0f d4 c2          	paddq  %xmm2,%xmm0
  4010cd:	48 83 c2 10          	add    $0x10,%rdx
  4010d1:	66 0f 7f 42 f0       	movdqa %xmm0,-0x10(%rdx)
  4010d6:	66 0f d4 cb          	paddq  %xmm3,%xmm1
  4010da:	48 39 c6             	cmp    %rax,%rsi
  4010dd:	76 06                	jbe    4010e5 <main+0x305>
  4010df:	66 0f 6f c1          	movdqa %xmm1,%xmm0
  4010e3:	eb dc                	jmp    4010c1 <main+0x2e1>
  4010e5:	4c 01 c1             	add    %r8,%rcx
  4010e8:	4c 39 c7             	cmp    %r8,%rdi
  4010eb:	74 08                	je     4010f5 <main+0x315>
  4010ed:	48 8d 41 01          	lea    0x1(%rcx),%rax
  4010f1:	49 89 04 cc          	mov    %rax,(%r12,%rcx,8)
  4010f5:	48 8d 44 24 40       	lea    0x40(%rsp),%rax
  4010fa:	48 89 44 24 10       	mov    %rax,0x10(%rsp)
    }

    for (t = 0; t < numTable; t++) {

        /* Shuffle ids */
        for (i = 0; i < numRelation; i++) {
  4010ff:	48 85 db             	test   %rbx,%rbx
  401102:	0f 8e df 00 00 00    	jle    4011e7 <main+0x407>
  401108:	45 31 ed             	xor    %r13d,%r13d
  40110b:	0f 1f 44 00 00       	nopl   0x0(%rax,%rax,1)
            long x = random_generate(randomPtr) % numRelation;
  401110:	48 89 ef             	mov    %rbp,%rdi
    }

    for (t = 0; t < numTable; t++) {

        /* Shuffle ids */
        for (i = 0; i < numRelation; i++) {
  401113:	49 83 c5 01          	add    $0x1,%r13
            long x = random_generate(randomPtr) % numRelation;
  401117:	e8 a4 40 00 00       	callq  4051c0 <random_generate>
  40111c:	31 d2                	xor    %edx,%edx
            long y = random_generate(randomPtr) % numRelation;
  40111e:	48 89 ef             	mov    %rbp,%rdi

    for (t = 0; t < numTable; t++) {

        /* Shuffle ids */
        for (i = 0; i < numRelation; i++) {
            long x = random_generate(randomPtr) % numRelation;
  401121:	48 f7 f3             	div    %rbx
  401124:	49 89 d6             	mov    %rdx,%r14
            long y = random_generate(randomPtr) % numRelation;
  401127:	e8 94 40 00 00       	callq  4051c0 <random_generate>
  40112c:	31 d2                	xor    %edx,%edx
            long tmp = ids[x];
  40112e:	4b 8d 0c f4          	lea    (%r12,%r14,8),%rcx
    for (t = 0; t < numTable; t++) {

        /* Shuffle ids */
        for (i = 0; i < numRelation; i++) {
            long x = random_generate(randomPtr) % numRelation;
            long y = random_generate(randomPtr) % numRelation;
  401132:	48 f7 f3             	div    %rbx
            long tmp = ids[x];
  401135:	48 8b 31             	mov    (%rcx),%rsi
    }

    for (t = 0; t < numTable; t++) {

        /* Shuffle ids */
        for (i = 0; i < numRelation; i++) {
  401138:	49 39 dd             	cmp    %rbx,%r13
            long x = random_generate(randomPtr) % numRelation;
            long y = random_generate(randomPtr) % numRelation;
            long tmp = ids[x];
            ids[x] = ids[y];
  40113b:	49 8d 04 d4          	lea    (%r12,%rdx,8),%rax
  40113f:	48 8b 10             	mov    (%rax),%rdx
  401142:	48 89 11             	mov    %rdx,(%rcx)
            ids[y] = tmp;
  401145:	48 89 30             	mov    %rsi,(%rax)
    }

    for (t = 0; t < numTable; t++) {

        /* Shuffle ids */
        for (i = 0; i < numRelation; i++) {
  401148:	75 c6                	jne    401110 <main+0x330>
  40114a:	48 8b 44 24 10       	mov    0x10(%rsp),%rax
  40114f:	45 31 ff             	xor    %r15d,%r15d
  401152:	48 8b 00             	mov    (%rax),%rax
  401155:	48 89 44 24 08       	mov    %rax,0x8(%rsp)
  40115a:	66 0f 1f 44 00 00    	nopw   0x0(%rax,%rax,1)

        /* Populate table */
        for (i = 0; i < numRelation; i++) {
            bool_t status;
            long id = ids[i];
            long num = ((random_generate(randomPtr) % 5) + 1) * 100;
  401160:	48 89 ef             	mov    %rbp,%rdi
        }

        /* Populate table */
        for (i = 0; i < numRelation; i++) {
            bool_t status;
            long id = ids[i];
  401163:	4f 8b 34 fc          	mov    (%r12,%r15,8),%r14
            long num = ((random_generate(randomPtr) % 5) + 1) * 100;
  401167:	e8 54 40 00 00       	callq  4051c0 <random_generate>
            long price = ((random_generate(randomPtr) % 5) * 10) + 50;
  40116c:	48 89 ef             	mov    %rbp,%rdi

        /* Populate table */
        for (i = 0; i < numRelation; i++) {
            bool_t status;
            long id = ids[i];
            long num = ((random_generate(randomPtr) % 5) + 1) * 100;
  40116f:	49 89 c5             	mov    %rax,%r13
            long price = ((random_generate(randomPtr) % 5) * 10) + 50;
  401172:	e8 49 40 00 00       	callq  4051c0 <random_generate>
  401177:	48 89 c1             	mov    %rax,%rcx
  40117a:	48 b8 cd cc cc cc cc 	movabs $0xcccccccccccccccd,%rax
  401181:	cc cc cc 

        /* Populate table */
        for (i = 0; i < numRelation; i++) {
            bool_t status;
            long id = ids[i];
            long num = ((random_generate(randomPtr) % 5) + 1) * 100;
  401184:	4d 89 e9             	mov    %r13,%r9
            long price = ((random_generate(randomPtr) % 5) * 10) + 50;
  401187:	48 f7 e1             	mul    %rcx
            status = manager_add[t](managerPtr, id, num, price);
  40118a:	4c 89 f6             	mov    %r14,%rsi
  40118d:	48 8b 3c 24          	mov    (%rsp),%rdi
        /* Populate table */
        for (i = 0; i < numRelation; i++) {
            bool_t status;
            long id = ids[i];
            long num = ((random_generate(randomPtr) % 5) + 1) * 100;
            long price = ((random_generate(randomPtr) % 5) * 10) + 50;
  401191:	48 c1 ea 02          	shr    $0x2,%rdx
  401195:	48 8d 04 92          	lea    (%rdx,%rdx,4),%rax
  401199:	48 29 c1             	sub    %rax,%rcx
  40119c:	48 8d 04 89          	lea    (%rcx,%rcx,4),%rax
  4011a0:	48 8d 4c 00 32       	lea    0x32(%rax,%rax,1),%rcx

        /* Populate table */
        for (i = 0; i < numRelation; i++) {
            bool_t status;
            long id = ids[i];
            long num = ((random_generate(randomPtr) % 5) + 1) * 100;
  4011a5:	48 b8 cd cc cc cc cc 	movabs $0xcccccccccccccccd,%rax
  4011ac:	cc cc cc 
  4011af:	49 f7 e5             	mul    %r13
  4011b2:	48 c1 ea 02          	shr    $0x2,%rdx
  4011b6:	48 8d 04 92          	lea    (%rdx,%rdx,4),%rax
  4011ba:	49 29 c1             	sub    %rax,%r9
  4011bd:	4b 8d 44 89 05       	lea    0x5(%r9,%r9,4),%rax
  4011c2:	48 8d 14 80          	lea    (%rax,%rax,4),%rdx
            long price = ((random_generate(randomPtr) % 5) * 10) + 50;
            status = manager_add[t](managerPtr, id, num, price);
  4011c6:	48 8b 44 24 08       	mov    0x8(%rsp),%rax

        /* Populate table */
        for (i = 0; i < numRelation; i++) {
            bool_t status;
            long id = ids[i];
            long num = ((random_generate(randomPtr) % 5) + 1) * 100;
  4011cb:	48 c1 e2 02          	shl    $0x2,%rdx
            long price = ((random_generate(randomPtr) % 5) * 10) + 50;
            status = manager_add[t](managerPtr, id, num, price);
  4011cf:	ff d0                	callq  *%rax
            assert(status);
  4011d1:	48 85 c0             	test   %rax,%rax
  4011d4:	0f 84 d1 03 00 00    	je     4015ab <main+0x7cb>
            ids[x] = ids[y];
            ids[y] = tmp;
        }

        /* Populate table */
        for (i = 0; i < numRelation; i++) {
  4011da:	49 83 c7 01          	add    $0x1,%r15
  4011de:	49 39 df             	cmp    %rbx,%r15
  4011e1:	0f 85 79 ff ff ff    	jne    401160 <main+0x380>
  4011e7:	48 83 44 24 10 08    	addq   $0x8,0x10(%rsp)
    ids = (long*)malloc(numRelation * sizeof(long));
    for (i = 0; i < numRelation; i++) {
        ids[i] = i + 1;
    }

    for (t = 0; t < numTable; t++) {
  4011ed:	48 8d 44 24 60       	lea    0x60(%rsp),%rax
  4011f2:	48 39 44 24 10       	cmp    %rax,0x10(%rsp)
  4011f7:	0f 85 02 ff ff ff    	jne    4010ff <main+0x31f>
            assert(status);
        }

    } /* for t */

    puts("done.");
  4011fd:	bf 00 8f 40 00       	mov    $0x408f00,%edi
  401202:	e8 19 fa ff ff       	callq  400c20 <puts@plt>
    fflush(stdout);
  401207:	48 8b 3d 22 b1 20 00 	mov    0x20b122(%rip),%rdi        # 60c330 <stdout@@GLIBC_2.2.5>
  40120e:	e8 4d fb ff ff       	callq  400d60 <fflush@plt>

    random_free(randomPtr);
  401213:	48 89 ef             	mov    %rbp,%rdi
  401216:	e8 65 3f 00 00       	callq  405180 <random_free>
    free(ids);
  40121b:	4c 89 e7             	mov    %r12,%rdi
  40121e:	e8 8d fa ff ff       	callq  400cb0 <free@plt>
{
    random_t* randomPtr;
    client_t** clients;
    long i;
    long numClient = (long)global_params[PARAM_CLIENTS];
    long numTransaction = (long)global_params[PARAM_TRANSACTIONS];
  401223:	f2 0f 10 2d 95 b5 20 	movsd  0x20b595(%rip),%xmm5        # 60c7c0 <global_params+0x3a0>
  40122a:	00 
    long numRelation = (long)global_params[PARAM_RELATIONS];
    long percentQuery = (long)global_params[PARAM_QUERIES];
    long queryRange;
    long percentUser = (long)global_params[PARAM_USER];

    printf("Initializing clients... ");
  40122b:	bf 73 8f 40 00       	mov    $0x408f73,%edi
    long i;
    long numClient = (long)global_params[PARAM_CLIENTS];
    long numTransaction = (long)global_params[PARAM_TRANSACTIONS];
    long numTransactionPerClient;
    long numQueryPerTransaction = (long)global_params[PARAM_NUMBER];
    long numRelation = (long)global_params[PARAM_RELATIONS];
  401230:	f2 0f 10 3d 78 b5 20 	movsd  0x20b578(%rip),%xmm7        # 60c7b0 <global_params+0x390>
  401237:	00 
{
    random_t* randomPtr;
    client_t** clients;
    long i;
    long numClient = (long)global_params[PARAM_CLIENTS];
    long numTransaction = (long)global_params[PARAM_TRANSACTIONS];
  401238:	f2 48 0f 2c c5       	cvttsd2si %xmm5,%rax
    long numTransactionPerClient;
    long numQueryPerTransaction = (long)global_params[PARAM_NUMBER];
    long numRelation = (long)global_params[PARAM_RELATIONS];
    long percentQuery = (long)global_params[PARAM_QUERIES];
  40123d:	f2 44 0f 10 05 62 b5 	movsd  0x20b562(%rip),%xmm8        # 60c7a8 <global_params+0x388>
  401244:	20 00 
    long queryRange;
    long percentUser = (long)global_params[PARAM_USER];
  401246:	f2 44 0f 10 0d 79 b5 	movsd  0x20b579(%rip),%xmm9        # 60c7c8 <global_params+0x3a8>
  40124d:	20 00 
initializeClients (manager_t* managerPtr)
{
    random_t* randomPtr;
    client_t** clients;
    long i;
    long numClient = (long)global_params[PARAM_CLIENTS];
  40124f:	f2 0f 10 25 e1 b4 20 	movsd  0x20b4e1(%rip),%xmm4        # 60c738 <global_params+0x318>
  401256:	00 
    long numTransaction = (long)global_params[PARAM_TRANSACTIONS];
    long numTransactionPerClient;
    long numQueryPerTransaction = (long)global_params[PARAM_NUMBER];
  401257:	f2 0f 10 35 31 b5 20 	movsd  0x20b531(%rip),%xmm6        # 60c790 <global_params+0x370>
  40125e:	00 
initializeClients (manager_t* managerPtr)
{
    random_t* randomPtr;
    client_t** clients;
    long i;
    long numClient = (long)global_params[PARAM_CLIENTS];
  40125f:	f2 48 0f 2c ec       	cvttsd2si %xmm4,%rbp
    long numTransaction = (long)global_params[PARAM_TRANSACTIONS];
    long numTransactionPerClient;
    long numQueryPerTransaction = (long)global_params[PARAM_NUMBER];
  401264:	f2 4c 0f 2c fe       	cvttsd2si %xmm6,%r15
{
    random_t* randomPtr;
    client_t** clients;
    long i;
    long numClient = (long)global_params[PARAM_CLIENTS];
    long numTransaction = (long)global_params[PARAM_TRANSACTIONS];
  401269:	48 89 44 24 10       	mov    %rax,0x10(%rsp)
    long numTransactionPerClient;
    long numQueryPerTransaction = (long)global_params[PARAM_NUMBER];
    long numRelation = (long)global_params[PARAM_RELATIONS];
  40126e:	f2 48 0f 2c c7       	cvttsd2si %xmm7,%rax
  401273:	48 89 44 24 18       	mov    %rax,0x18(%rsp)
    long percentQuery = (long)global_params[PARAM_QUERIES];
  401278:	f2 49 0f 2c c0       	cvttsd2si %xmm8,%rax
  40127d:	48 89 44 24 20       	mov    %rax,0x20(%rsp)
    long queryRange;
    long percentUser = (long)global_params[PARAM_USER];
  401282:	f2 49 0f 2c c1       	cvttsd2si %xmm9,%rax
  401287:	48 89 44 24 08       	mov    %rax,0x8(%rsp)

    printf("Initializing clients... ");
  40128c:	31 c0                	xor    %eax,%eax
  40128e:	e8 6d f9 ff ff       	callq  400c00 <printf@plt>
    fflush(stdout);
  401293:	48 8b 3d 96 b0 20 00 	mov    0x20b096(%rip),%rdi        # 60c330 <stdout@@GLIBC_2.2.5>
  40129a:	e8 c1 fa ff ff       	callq  400d60 <fflush@plt>

    randomPtr = random_alloc();
  40129f:	31 c0                	xor    %eax,%eax
  4012a1:	e8 5a 3e 00 00       	callq  405100 <random_alloc>
    assert(randomPtr != NULL);
  4012a6:	48 85 c0             	test   %rax,%rax
    long percentUser = (long)global_params[PARAM_USER];

    printf("Initializing clients... ");
    fflush(stdout);

    randomPtr = random_alloc();
  4012a9:	48 89 44 24 28       	mov    %rax,0x28(%rsp)
    assert(randomPtr != NULL);
  4012ae:	0f 84 e5 03 00 00    	je     401699 <main+0x8b9>

    clients = (client_t**)malloc(numClient * sizeof(client_t*));
  4012b4:	48 8d 3c ed 00 00 00 	lea    0x0(,%rbp,8),%rdi
  4012bb:	00 
  4012bc:	e8 bf f9 ff ff       	callq  400c80 <malloc@plt>
    assert(clients != NULL);
  4012c1:	48 85 c0             	test   %rax,%rax
    fflush(stdout);

    randomPtr = random_alloc();
    assert(randomPtr != NULL);

    clients = (client_t**)malloc(numClient * sizeof(client_t*));
  4012c4:	48 89 c3             	mov    %rax,%rbx
    assert(clients != NULL);
  4012c7:	0f 84 e5 03 00 00    	je     4016b2 <main+0x8d2>
    numTransactionPerClient = (long)((double)numTransaction / (double)numClient + 0.5);
  4012cd:	f2 48 0f 2a cd       	cvtsi2sd %rbp,%xmm1
  4012d2:	f2 48 0f 2a 44 24 10 	cvtsi2sdq 0x10(%rsp),%xmm0
    queryRange = (long)((double)percentQuery / 100.0 * (double)numRelation + 0.5);
  4012d9:	f2 48 0f 2a 54 24 18 	cvtsi2sdq 0x18(%rsp),%xmm2

    for (i = 0; i < numClient; i++) {
  4012e0:	45 31 e4             	xor    %r12d,%r12d
  4012e3:	48 85 ed             	test   %rbp,%rbp
    randomPtr = random_alloc();
    assert(randomPtr != NULL);

    clients = (client_t**)malloc(numClient * sizeof(client_t*));
    assert(clients != NULL);
    numTransactionPerClient = (long)((double)numTransaction / (double)numClient + 0.5);
  4012e6:	f2 0f 5e c1          	divsd  %xmm1,%xmm0
  4012ea:	f2 0f 10 0d b6 80 00 	movsd  0x80b6(%rip),%xmm1        # 4093a8 <__PRETTY_FUNCTION__.3923+0x16>
  4012f1:	00 
  4012f2:	f2 0f 58 c1          	addsd  %xmm1,%xmm0
  4012f6:	f2 4c 0f 2c e8       	cvttsd2si %xmm0,%r13
    queryRange = (long)((double)percentQuery / 100.0 * (double)numRelation + 0.5);
  4012fb:	f2 48 0f 2a 44 24 20 	cvtsi2sdq 0x20(%rsp),%xmm0
  401302:	f2 0f 5e 05 96 80 00 	divsd  0x8096(%rip),%xmm0        # 4093a0 <__PRETTY_FUNCTION__.3923+0xe>
  401309:	00 
  40130a:	f2 0f 59 c2          	mulsd  %xmm2,%xmm0
  40130e:	f2 0f 58 c1          	addsd  %xmm1,%xmm0
  401312:	f2 4c 0f 2c f0       	cvttsd2si %xmm0,%r14

    for (i = 0; i < numClient; i++) {
  401317:	7e 37                	jle    401350 <main+0x570>
  401319:	0f 1f 80 00 00 00 00 	nopl   0x0(%rax)
        clients[i] = client_alloc(i,
  401320:	4c 8b 4c 24 08       	mov    0x8(%rsp),%r9
  401325:	48 8b 34 24          	mov    (%rsp),%rsi
  401329:	4d 89 f0             	mov    %r14,%r8
  40132c:	4c 89 f9             	mov    %r15,%rcx
  40132f:	4c 89 ea             	mov    %r13,%rdx
  401332:	4c 89 e7             	mov    %r12,%rdi
  401335:	e8 e6 04 00 00       	callq  401820 <client_alloc>
                                  managerPtr,
                                  numTransactionPerClient,
                                  numQueryPerTransaction,
                                  queryRange,
                                  percentUser);
        assert(clients[i]  != NULL);
  40133a:	48 85 c0             	test   %rax,%rax
    assert(clients != NULL);
    numTransactionPerClient = (long)((double)numTransaction / (double)numClient + 0.5);
    queryRange = (long)((double)percentQuery / 100.0 * (double)numRelation + 0.5);

    for (i = 0; i < numClient; i++) {
        clients[i] = client_alloc(i,
  40133d:	4a 89 04 e3          	mov    %rax,(%rbx,%r12,8)
                                  managerPtr,
                                  numTransactionPerClient,
                                  numQueryPerTransaction,
                                  queryRange,
                                  percentUser);
        assert(clients[i]  != NULL);
  401341:	0f 84 7d 02 00 00    	je     4015c4 <main+0x7e4>
    clients = (client_t**)malloc(numClient * sizeof(client_t*));
    assert(clients != NULL);
    numTransactionPerClient = (long)((double)numTransaction / (double)numClient + 0.5);
    queryRange = (long)((double)percentQuery / 100.0 * (double)numRelation + 0.5);

    for (i = 0; i < numClient; i++) {
  401347:	49 83 c4 01          	add    $0x1,%r12
  40134b:	49 39 ec             	cmp    %rbp,%r12
  40134e:	75 d0                	jne    401320 <main+0x540>
                                  queryRange,
                                  percentUser);
        assert(clients[i]  != NULL);
    }

    puts("done.");
  401350:	bf 00 8f 40 00       	mov    $0x408f00,%edi
  401355:	e8 c6 f8 ff ff       	callq  400c20 <puts@plt>
    printf("    Transactions        = %li\n", numTransaction);
  40135a:	48 8b 74 24 10       	mov    0x10(%rsp),%rsi
  40135f:	bf 58 92 40 00       	mov    $0x409258,%edi
  401364:	31 c0                	xor    %eax,%eax
  401366:	e8 95 f8 ff ff       	callq  400c00 <printf@plt>
    printf("    Clients             = %li\n", numClient);
  40136b:	48 89 ee             	mov    %rbp,%rsi
  40136e:	bf 78 92 40 00       	mov    $0x409278,%edi
  401373:	31 c0                	xor    %eax,%eax
  401375:	e8 86 f8 ff ff       	callq  400c00 <printf@plt>
    printf("    Transactions/client = %li\n", numTransactionPerClient);
  40137a:	4c 89 ee             	mov    %r13,%rsi
  40137d:	bf 98 92 40 00       	mov    $0x409298,%edi
  401382:	31 c0                	xor    %eax,%eax
  401384:	e8 77 f8 ff ff       	callq  400c00 <printf@plt>
    printf("    Queries/transaction = %li\n", numQueryPerTransaction);
  401389:	4c 89 fe             	mov    %r15,%rsi
  40138c:	bf b8 92 40 00       	mov    $0x4092b8,%edi
  401391:	31 c0                	xor    %eax,%eax
  401393:	e8 68 f8 ff ff       	callq  400c00 <printf@plt>
    printf("    Relations           = %li\n", numRelation);
  401398:	48 8b 74 24 18       	mov    0x18(%rsp),%rsi
  40139d:	bf d8 92 40 00       	mov    $0x4092d8,%edi
  4013a2:	31 c0                	xor    %eax,%eax
  4013a4:	e8 57 f8 ff ff       	callq  400c00 <printf@plt>
    printf("    Query percent       = %li\n", percentQuery);
  4013a9:	48 8b 74 24 20       	mov    0x20(%rsp),%rsi
  4013ae:	bf f8 92 40 00       	mov    $0x4092f8,%edi
  4013b3:	31 c0                	xor    %eax,%eax
  4013b5:	e8 46 f8 ff ff       	callq  400c00 <printf@plt>
    printf("    Query range         = %li\n", queryRange);
  4013ba:	4c 89 f6             	mov    %r14,%rsi
  4013bd:	bf 18 93 40 00       	mov    $0x409318,%edi
  4013c2:	31 c0                	xor    %eax,%eax
  4013c4:	e8 37 f8 ff ff       	callq  400c00 <printf@plt>
    printf("    Percent user        = %li\n", percentUser);
  4013c9:	48 8b 74 24 08       	mov    0x8(%rsp),%rsi
  4013ce:	bf 38 93 40 00       	mov    $0x409338,%edi
  4013d3:	31 c0                	xor    %eax,%eax
  4013d5:	e8 26 f8 ff ff       	callq  400c00 <printf@plt>
    fflush(stdout);
  4013da:	48 8b 3d 4f af 20 00 	mov    0x20af4f(%rip),%rdi        # 60c330 <stdout@@GLIBC_2.2.5>
  4013e1:	e8 7a f9 ff ff       	callq  400d60 <fflush@plt>

    random_free(randomPtr);
  4013e6:	48 8b 7c 24 28       	mov    0x28(%rsp),%rdi
  4013eb:	e8 90 3d 00 00       	callq  405180 <random_free>
    SIM_GET_NUM_CPU(global_params[PARAM_CLIENTS]);
    managerPtr = initializeManager();
    assert(managerPtr != NULL);
    clients = initializeClients(managerPtr);
    assert(clients != NULL);
    long numThread = global_params[PARAM_CLIENTS];
  4013f0:	f2 0f 10 15 40 b3 20 	movsd  0x20b340(%rip),%xmm2        # 60c738 <global_params+0x318>
  4013f7:	00 
    printf("numThread = %ld\n", numThread);
  4013f8:	bf a3 8f 40 00       	mov    $0x408fa3,%edi
  4013fd:	31 c0                	xor    %eax,%eax
    SIM_GET_NUM_CPU(global_params[PARAM_CLIENTS]);
    managerPtr = initializeManager();
    assert(managerPtr != NULL);
    clients = initializeClients(managerPtr);
    assert(clients != NULL);
    long numThread = global_params[PARAM_CLIENTS];
  4013ff:	f2 48 0f 2c ea       	cvttsd2si %xmm2,%rbp
    printf("numThread = %ld\n", numThread);
  401404:	48 89 ee             	mov    %rbp,%rsi
  401407:	e8 f4 f7 ff ff       	callq  400c00 <printf@plt>
    TM_STARTUP(numThread);
    P_MEMORY_STARTUP(numThread);
    thread_startup(numThread);
  40140c:	48 89 ef             	mov    %rbp,%rdi
  40140f:	e8 ec 6d 00 00       	callq  408200 <thread_startup>

    /* Run transactions */
    printf("Running clients... ");
  401414:	bf b4 8f 40 00       	mov    $0x408fb4,%edi
  401419:	31 c0                	xor    %eax,%eax
  40141b:	e8 e0 f7 ff ff       	callq  400c00 <printf@plt>
    fflush(stdout);
  401420:	48 8b 3d 09 af 20 00 	mov    0x20af09(%rip),%rdi        # 60c330 <stdout@@GLIBC_2.2.5>
  401427:	e8 34 f9 ff ff       	callq  400d60 <fflush@plt>
    TIMER_READ(start);
  40142c:	48 8d 7c 24 30       	lea    0x30(%rsp),%rdi
  401431:	31 f6                	xor    %esi,%esi
  401433:	e8 28 f8 ff ff       	callq  400c60 <gettimeofday@plt>
#pragma omp parallel
    {
        client_run(clients);
    }
#else
    thread_start(client_run, (void*)clients);
  401438:	48 89 de             	mov    %rbx,%rsi
  40143b:	bf c0 18 40 00       	mov    $0x4018c0,%edi
  401440:	e8 4b 75 00 00       	callq  408990 <thread_start>
#endif
    GOTO_REAL();
    TIMER_READ(stop);
  401445:	48 8d 7c 24 40       	lea    0x40(%rsp),%rdi
  40144a:	31 f6                	xor    %esi,%esi
  40144c:	e8 0f f8 ff ff       	callq  400c60 <gettimeofday@plt>
    puts("done.");
  401451:	bf 00 8f 40 00       	mov    $0x408f00,%edi
  401456:	e8 c5 f7 ff ff       	callq  400c20 <puts@plt>
    printf("Time = %0.6lf\n",
           TIMER_DIFF_SECONDS(start, stop));
  40145b:	f2 48 0f 2a 4c 24 48 	cvtsi2sdq 0x48(%rsp),%xmm1
  401462:	f2 48 0f 2a 54 24 38 	cvtsi2sdq 0x38(%rsp),%xmm2
  401469:	f2 0f 10 1d 6f 7f 00 	movsd  0x7f6f(%rip),%xmm3        # 4093e0 <__PRETTY_FUNCTION__.3923+0x4e>
  401470:	00 
  401471:	f2 48 0f 2a 44 24 40 	cvtsi2sdq 0x40(%rsp),%xmm0
    thread_start(client_run, (void*)clients);
#endif
    GOTO_REAL();
    TIMER_READ(stop);
    puts("done.");
    printf("Time = %0.6lf\n",
  401478:	bf c8 8f 40 00       	mov    $0x408fc8,%edi
  40147d:	b8 01 00 00 00       	mov    $0x1,%eax
           TIMER_DIFF_SECONDS(start, stop));
  401482:	f2 0f 5e cb          	divsd  %xmm3,%xmm1
  401486:	f2 0f 5e d3          	divsd  %xmm3,%xmm2
  40148a:	f2 0f 58 c1          	addsd  %xmm1,%xmm0
  40148e:	f2 48 0f 2a 4c 24 30 	cvtsi2sdq 0x30(%rsp),%xmm1
  401495:	f2 0f 58 ca          	addsd  %xmm2,%xmm1
    thread_start(client_run, (void*)clients);
#endif
    GOTO_REAL();
    TIMER_READ(stop);
    puts("done.");
    printf("Time = %0.6lf\n",
  401499:	f2 0f 5c c1          	subsd  %xmm1,%xmm0
  40149d:	e8 5e f7 ff ff       	callq  400c00 <printf@plt>
           TIMER_DIFF_SECONDS(start, stop));
    fflush(stdout);
  4014a2:	48 8b 3d 87 ae 20 00 	mov    0x20ae87(%rip),%rdi        # 60c330 <stdout@@GLIBC_2.2.5>
  4014a9:	e8 b2 f8 ff ff       	callq  400d60 <fflush@plt>
    checkTables(managerPtr);
  4014ae:	48 8b 3c 24          	mov    (%rsp),%rdi
  4014b2:	e8 39 25 00 00       	callq  4039f0 <checkTables>

    /* Clean up */
    printf("Deallocating memory... ");
  4014b7:	bf d7 8f 40 00       	mov    $0x408fd7,%edi
  4014bc:	31 c0                	xor    %eax,%eax
freeClients (client_t** clients)
{
    long i;
    long numClient = (long)global_params[PARAM_CLIENTS];

    for (i = 0; i < numClient; i++) {
  4014be:	31 ed                	xor    %ebp,%ebp
           TIMER_DIFF_SECONDS(start, stop));
    fflush(stdout);
    checkTables(managerPtr);

    /* Clean up */
    printf("Deallocating memory... ");
  4014c0:	e8 3b f7 ff ff       	callq  400c00 <printf@plt>
    fflush(stdout);
  4014c5:	48 8b 3d 64 ae 20 00 	mov    0x20ae64(%rip),%rdi        # 60c330 <stdout@@GLIBC_2.2.5>
  4014cc:	e8 8f f8 ff ff       	callq  400d60 <fflush@plt>
 */
static void
freeClients (client_t** clients)
{
    long i;
    long numClient = (long)global_params[PARAM_CLIENTS];
  4014d1:	f2 0f 10 1d 5f b2 20 	movsd  0x20b25f(%rip),%xmm3        # 60c738 <global_params+0x318>
  4014d8:	00 
  4014d9:	f2 4c 0f 2c e3       	cvttsd2si %xmm3,%r12

    for (i = 0; i < numClient; i++) {
  4014de:	4d 85 e4             	test   %r12,%r12
  4014e1:	7e 17                	jle    4014fa <main+0x71a>
  4014e3:	0f 1f 44 00 00       	nopl   0x0(%rax,%rax,1)
        client_t* clientPtr = clients[i];
        client_free(clientPtr);
  4014e8:	48 8b 3c eb          	mov    (%rbx,%rbp,8),%rdi
freeClients (client_t** clients)
{
    long i;
    long numClient = (long)global_params[PARAM_CLIENTS];

    for (i = 0; i < numClient; i++) {
  4014ec:	48 83 c5 01          	add    $0x1,%rbp
        client_t* clientPtr = clients[i];
        client_free(clientPtr);
  4014f0:	e8 bb 03 00 00       	callq  4018b0 <client_free>
freeClients (client_t** clients)
{
    long i;
    long numClient = (long)global_params[PARAM_CLIENTS];

    for (i = 0; i < numClient; i++) {
  4014f5:	4c 39 e5             	cmp    %r12,%rbp
  4014f8:	75 ee                	jne    4014e8 <main+0x708>
    fflush(stdout);
    freeClients(clients);
    /*
     * TODO: The contents of the manager's table need to be deallocated.
     */
    manager_free(managerPtr);
  4014fa:	48 8b 3c 24          	mov    (%rsp),%rdi
  4014fe:	e8 6d 0c 00 00       	callq  402170 <manager_free>
    puts("done.");
  401503:	bf 00 8f 40 00       	mov    $0x408f00,%edi
  401508:	e8 13 f7 ff ff       	callq  400c20 <puts@plt>
    fflush(stdout);
  40150d:	48 8b 3d 1c ae 20 00 	mov    0x20ae1c(%rip),%rdi        # 60c330 <stdout@@GLIBC_2.2.5>
  401514:	e8 47 f8 ff ff       	callq  400d60 <fflush@plt>
    TM_SHUTDOWN();
    P_MEMORY_SHUTDOWN();

    GOTO_SIM();

    thread_shutdown();
  401519:	31 c0                	xor    %eax,%eax
  40151b:	e8 c0 73 00 00       	callq  4088e0 <thread_shutdown>

    MAIN_RETURN(0);
}
  401520:	48 83 c4 68          	add    $0x68,%rsp
  401524:	31 c0                	xor    %eax,%eax
  401526:	5b                   	pop    %rbx
  401527:	5d                   	pop    %rbp
  401528:	41 5c                	pop    %r12
  40152a:	41 5d                	pop    %r13
  40152c:	41 5e                	pop    %r14
  40152e:	41 5f                	pop    %r15
  401530:	c3                   	retq   
    managerPtr = manager_alloc();
    assert(managerPtr != NULL);

    numRelation = (long)global_params[PARAM_RELATIONS];
    ids = (long*)malloc(numRelation * sizeof(long));
    for (i = 0; i < numRelation; i++) {
  401531:	31 c0                	xor    %eax,%eax
  401533:	31 c9                	xor    %ecx,%ecx
  401535:	48 85 d2             	test   %rdx,%rdx
  401538:	0f 84 40 fb ff ff    	je     40107e <main+0x29e>
  40153e:	48 89 d0             	mov    %rdx,%rax
  401541:	e9 7b fa ff ff       	jmpq   400fc1 <main+0x1e1>
  401546:	8b 05 bc ad 20 00    	mov    0x20adbc(%rip),%eax        # 60c308 <opterr@@GLIBC_2.2.5>
  40154c:	e9 bf f9 ff ff       	jmpq   400f10 <main+0x130>
        ids[i] = i + 1;
  401551:	b9 04 00 00 00       	mov    $0x4,%ecx
  401556:	e9 1e fb ff ff       	jmpq   401079 <main+0x299>
  40155b:	b9 05 00 00 00       	mov    $0x5,%ecx
  401560:	e9 14 fb ff ff       	jmpq   401079 <main+0x299>
  401565:	b9 06 00 00 00       	mov    $0x6,%ecx
  40156a:	e9 0a fb ff ff       	jmpq   401079 <main+0x299>
  40156f:	b9 07 00 00 00       	mov    $0x7,%ecx
  401574:	e9 00 fb ff ff       	jmpq   401079 <main+0x299>
  401579:	b9 02 00 00 00       	mov    $0x2,%ecx
  40157e:	e9 f6 fa ff ff       	jmpq   401079 <main+0x299>
  401583:	b9 03 00 00 00       	mov    $0x3,%ecx
  401588:	e9 ec fa ff ff       	jmpq   401079 <main+0x299>
  40158d:	b9 08 00 00 00       	mov    $0x8,%ecx
  401592:	e9 e2 fa ff ff       	jmpq   401079 <main+0x299>
  401597:	b9 09 00 00 00       	mov    $0x9,%ecx
  40159c:	e9 d8 fa ff ff       	jmpq   401079 <main+0x299>
  4015a1:	b9 01 00 00 00       	mov    $0x1,%ecx
  4015a6:	e9 ce fa ff ff       	jmpq   401079 <main+0x299>
            bool_t status;
            long id = ids[i];
            long num = ((random_generate(randomPtr) % 5) + 1) * 100;
            long price = ((random_generate(randomPtr) % 5) * 10) + 50;
            status = manager_add[t](managerPtr, id, num, price);
            assert(status);
  4015ab:	b9 80 93 40 00       	mov    $0x409380,%ecx
  4015b0:	ba 03 01 00 00       	mov    $0x103,%edx
  4015b5:	be f5 8e 40 00       	mov    $0x408ef5,%esi
  4015ba:	bf 74 8c 40 00       	mov    $0x408c74,%edi
  4015bf:	e8 8c f6 ff ff       	callq  400c50 <__assert_fail@plt>
                                  managerPtr,
                                  numTransactionPerClient,
                                  numQueryPerTransaction,
                                  queryRange,
                                  percentUser);
        assert(clients[i]  != NULL);
  4015c4:	b9 60 93 40 00       	mov    $0x409360,%ecx
  4015c9:	ba 37 01 00 00       	mov    $0x137,%edx
  4015ce:	be f5 8e 40 00       	mov    $0x408ef5,%esi
  4015d3:	bf ef 8f 40 00       	mov    $0x408fef,%edi
  4015d8:	e8 73 f6 ff ff       	callq  400c50 <__assert_fail@plt>

    printf("Initializing manager... ");
    fflush(stdout);

    randomPtr = random_alloc();
    assert(randomPtr != NULL);
  4015dd:	b9 80 93 40 00       	mov    $0x409380,%ecx
  4015e2:	ba e6 00 00 00       	mov    $0xe6,%edx
  4015e7:	be f5 8e 40 00       	mov    $0x408ef5,%esi
  4015ec:	bf 5a 8f 40 00       	mov    $0x408f5a,%edi
  4015f1:	e8 5a f6 ff ff       	callq  400c50 <__assert_fail@plt>
 * =============================================================================
 */
static void
displayUsage (const char* appName)
{
    printf("Usage: %s [options]\n", appName);
  4015f6:	48 8b 75 00          	mov    0x0(%rbp),%rsi
  4015fa:	bf 2c 8f 40 00       	mov    $0x408f2c,%edi
  4015ff:	31 c0                	xor    %eax,%eax
  401601:	e8 fa f5 ff ff       	callq  400c00 <printf@plt>
    puts("\nOptions:                                             (defaults)\n");
  401606:	bf 90 90 40 00       	mov    $0x409090,%edi
  40160b:	e8 10 f6 ff ff       	callq  400c20 <puts@plt>
    printf("    c <UINT>   Number of [c]lients                   (%i)\n",
  401610:	be 01 00 00 00       	mov    $0x1,%esi
  401615:	bf d8 90 40 00       	mov    $0x4090d8,%edi
  40161a:	31 c0                	xor    %eax,%eax
  40161c:	e8 df f5 ff ff       	callq  400c00 <printf@plt>
           PARAM_DEFAULT_CLIENTS);
    printf("    n <UINT>   [n]umber of user queries/transaction  (%i)\n",
  401621:	be 0a 00 00 00       	mov    $0xa,%esi
  401626:	bf 18 91 40 00       	mov    $0x409118,%edi
  40162b:	31 c0                	xor    %eax,%eax
  40162d:	e8 ce f5 ff ff       	callq  400c00 <printf@plt>
           PARAM_DEFAULT_NUMBER);
    printf("    q <UINT>   Percentage of relations [q]ueried     (%i)\n",
  401632:	be 5a 00 00 00       	mov    $0x5a,%esi
  401637:	bf 58 91 40 00       	mov    $0x409158,%edi
  40163c:	31 c0                	xor    %eax,%eax
  40163e:	e8 bd f5 ff ff       	callq  400c00 <printf@plt>
           PARAM_DEFAULT_QUERIES);
    printf("    r <UINT>   Number of possible [r]elations        (%i)\n",
  401643:	be 00 00 01 00       	mov    $0x10000,%esi
  401648:	bf 98 91 40 00       	mov    $0x409198,%edi
  40164d:	31 c0                	xor    %eax,%eax
  40164f:	e8 ac f5 ff ff       	callq  400c00 <printf@plt>
           PARAM_DEFAULT_RELATIONS);
    printf("    t <UINT>   Number of [t]ransactions              (%i)\n",
  401654:	be 00 00 00 04       	mov    $0x4000000,%esi
  401659:	bf d8 91 40 00       	mov    $0x4091d8,%edi
  40165e:	31 c0                	xor    %eax,%eax
  401660:	e8 9b f5 ff ff       	callq  400c00 <printf@plt>
           PARAM_DEFAULT_TRANSACTIONS);
    printf("    u <UINT>   Percentage of [u]ser transactions     (%i)\n",
  401665:	bf 18 92 40 00       	mov    $0x409218,%edi
  40166a:	be 50 00 00 00       	mov    $0x50,%esi
  40166f:	31 c0                	xor    %eax,%eax
  401671:	e8 8a f5 ff ff       	callq  400c00 <printf@plt>
           PARAM_DEFAULT_USER);
    exit(1);
  401676:	bf 01 00 00 00       	mov    $0x1,%edi
  40167b:	e8 c0 f5 ff ff       	callq  400c40 <exit@plt>

    randomPtr = random_alloc();
    assert(randomPtr != NULL);

    managerPtr = manager_alloc();
    assert(managerPtr != NULL);
  401680:	b9 80 93 40 00       	mov    $0x409380,%ecx
  401685:	ba e9 00 00 00       	mov    $0xe9,%edx
  40168a:	be f5 8e 40 00       	mov    $0x408ef5,%esi
  40168f:	bf 3c 8c 40 00       	mov    $0x408c3c,%edi
  401694:	e8 b7 f5 ff ff       	callq  400c50 <__assert_fail@plt>

    printf("Initializing clients... ");
    fflush(stdout);

    randomPtr = random_alloc();
    assert(randomPtr != NULL);
  401699:	b9 60 93 40 00       	mov    $0x409360,%ecx
  40169e:	ba 29 01 00 00       	mov    $0x129,%edx
  4016a3:	be f5 8e 40 00       	mov    $0x408ef5,%esi
  4016a8:	bf 5a 8f 40 00       	mov    $0x408f5a,%edi
  4016ad:	e8 9e f5 ff ff       	callq  400c50 <__assert_fail@plt>

    clients = (client_t**)malloc(numClient * sizeof(client_t*));
    assert(clients != NULL);
  4016b2:	b9 60 93 40 00       	mov    $0x409360,%ecx
  4016b7:	ba 2c 01 00 00       	mov    $0x12c,%edx
  4016bc:	be f5 8e 40 00       	mov    $0x408ef5,%esi
  4016c1:	bf 8c 8f 40 00       	mov    $0x408f8c,%edi
  4016c6:	e8 85 f5 ff ff       	callq  400c50 <__assert_fail@plt>
  4016cb:	90                   	nop

00000000004016cc <_start>:
  4016cc:	31 ed                	xor    %ebp,%ebp
  4016ce:	49 89 d1             	mov    %rdx,%r9
  4016d1:	5e                   	pop    %rsi
  4016d2:	48 89 e2             	mov    %rsp,%rdx
  4016d5:	48 83 e4 f0          	and    $0xfffffffffffffff0,%rsp
  4016d9:	50                   	push   %rax
  4016da:	54                   	push   %rsp
  4016db:	49 c7 c0 40 8a 40 00 	mov    $0x408a40,%r8
  4016e2:	48 c7 c1 50 8a 40 00 	mov    $0x408a50,%rcx
  4016e9:	48 c7 c7 e0 0d 40 00 	mov    $0x400de0,%rdi
  4016f0:	e8 9b f5 ff ff       	callq  400c90 <__libc_start_main@plt>
  4016f5:	f4                   	hlt    
  4016f6:	90                   	nop
  4016f7:	90                   	nop

00000000004016f8 <call_gmon_start>:
  4016f8:	48 83 ec 08          	sub    $0x8,%rsp
  4016fc:	48 8b 05 f5 aa 20 00 	mov    0x20aaf5(%rip),%rax        # 60c1f8 <_DYNAMIC+0x1d0>
  401703:	48 85 c0             	test   %rax,%rax
  401706:	74 02                	je     40170a <call_gmon_start+0x12>
  401708:	ff d0                	callq  *%rax
  40170a:	48 83 c4 08          	add    $0x8,%rsp
  40170e:	c3                   	retq   
  40170f:	90                   	nop

0000000000401710 <deregister_tm_clones>:
  401710:	b8 ff c2 60 00       	mov    $0x60c2ff,%eax
  401715:	55                   	push   %rbp
  401716:	48 2d f8 c2 60 00    	sub    $0x60c2f8,%rax
  40171c:	48 83 f8 0e          	cmp    $0xe,%rax
  401720:	48 89 e5             	mov    %rsp,%rbp
  401723:	77 02                	ja     401727 <deregister_tm_clones+0x17>
  401725:	5d                   	pop    %rbp
  401726:	c3                   	retq   
  401727:	b8 00 00 00 00       	mov    $0x0,%eax
  40172c:	48 85 c0             	test   %rax,%rax
  40172f:	74 f4                	je     401725 <deregister_tm_clones+0x15>
  401731:	5d                   	pop    %rbp
  401732:	bf f8 c2 60 00       	mov    $0x60c2f8,%edi
  401737:	ff e0                	jmpq   *%rax
  401739:	0f 1f 80 00 00 00 00 	nopl   0x0(%rax)

0000000000401740 <register_tm_clones>:
  401740:	b8 f8 c2 60 00       	mov    $0x60c2f8,%eax
  401745:	55                   	push   %rbp
  401746:	48 2d f8 c2 60 00    	sub    $0x60c2f8,%rax
  40174c:	48 c1 f8 03          	sar    $0x3,%rax
  401750:	48 89 e5             	mov    %rsp,%rbp
  401753:	48 89 c2             	mov    %rax,%rdx
  401756:	48 c1 ea 3f          	shr    $0x3f,%rdx
  40175a:	48 01 d0             	add    %rdx,%rax
  40175d:	48 d1 f8             	sar    %rax
  401760:	75 02                	jne    401764 <register_tm_clones+0x24>
  401762:	5d                   	pop    %rbp
  401763:	c3                   	retq   
  401764:	ba 00 00 00 00       	mov    $0x0,%edx
  401769:	48 85 d2             	test   %rdx,%rdx
  40176c:	74 f4                	je     401762 <register_tm_clones+0x22>
  40176e:	5d                   	pop    %rbp
  40176f:	48 89 c6             	mov    %rax,%rsi
  401772:	bf f8 c2 60 00       	mov    $0x60c2f8,%edi
  401777:	ff e2                	jmpq   *%rdx
  401779:	0f 1f 80 00 00 00 00 	nopl   0x0(%rax)

0000000000401780 <__do_global_dtors_aux>:
  401780:	80 3d b1 ab 20 00 00 	cmpb   $0x0,0x20abb1(%rip)        # 60c338 <completed.6300>
  401787:	75 5f                	jne    4017e8 <__do_global_dtors_aux+0x68>
  401789:	55                   	push   %rbp
  40178a:	48 89 e5             	mov    %rsp,%rbp
  40178d:	53                   	push   %rbx
  40178e:	bb 18 c0 60 00       	mov    $0x60c018,%ebx
  401793:	48 81 eb 10 c0 60 00 	sub    $0x60c010,%rbx
  40179a:	48 83 ec 08          	sub    $0x8,%rsp
  40179e:	48 8b 05 9b ab 20 00 	mov    0x20ab9b(%rip),%rax        # 60c340 <dtor_idx.6302>
  4017a5:	48 c1 fb 03          	sar    $0x3,%rbx
  4017a9:	48 83 eb 01          	sub    $0x1,%rbx
  4017ad:	48 39 d8             	cmp    %rbx,%rax
  4017b0:	73 24                	jae    4017d6 <__do_global_dtors_aux+0x56>
  4017b2:	66 0f 1f 44 00 00    	nopw   0x0(%rax,%rax,1)
  4017b8:	48 83 c0 01          	add    $0x1,%rax
  4017bc:	48 89 05 7d ab 20 00 	mov    %rax,0x20ab7d(%rip)        # 60c340 <dtor_idx.6302>
  4017c3:	ff 14 c5 10 c0 60 00 	callq  *0x60c010(,%rax,8)
  4017ca:	48 8b 05 6f ab 20 00 	mov    0x20ab6f(%rip),%rax        # 60c340 <dtor_idx.6302>
  4017d1:	48 39 d8             	cmp    %rbx,%rax
  4017d4:	72 e2                	jb     4017b8 <__do_global_dtors_aux+0x38>
  4017d6:	e8 35 ff ff ff       	callq  401710 <deregister_tm_clones>
  4017db:	c6 05 56 ab 20 00 01 	movb   $0x1,0x20ab56(%rip)        # 60c338 <completed.6300>
  4017e2:	48 83 c4 08          	add    $0x8,%rsp
  4017e6:	5b                   	pop    %rbx
  4017e7:	5d                   	pop    %rbp
  4017e8:	c3                   	retq   
  4017e9:	0f 1f 80 00 00 00 00 	nopl   0x0(%rax)

00000000004017f0 <frame_dummy>:
  4017f0:	48 83 3d 28 a8 20 00 	cmpq   $0x0,0x20a828(%rip)        # 60c020 <__JCR_END__>
  4017f7:	00 
  4017f8:	74 1e                	je     401818 <frame_dummy+0x28>
  4017fa:	b8 00 00 00 00       	mov    $0x0,%eax
  4017ff:	48 85 c0             	test   %rax,%rax
  401802:	74 14                	je     401818 <frame_dummy+0x28>
  401804:	55                   	push   %rbp
  401805:	bf 20 c0 60 00       	mov    $0x60c020,%edi
  40180a:	48 89 e5             	mov    %rsp,%rbp
  40180d:	ff d0                	callq  *%rax
  40180f:	5d                   	pop    %rbp
  401810:	e9 2b ff ff ff       	jmpq   401740 <register_tm_clones>
  401815:	0f 1f 00             	nopl   (%rax)
  401818:	e9 23 ff ff ff       	jmpq   401740 <register_tm_clones>
  40181d:	0f 1f 00             	nopl   (%rax)

0000000000401820 <client_alloc>:
              manager_t* managerPtr,
              long numOperation,
              long numQueryPerTransaction,
              long queryRange,
              long percentUser)
{
  401820:	41 57                	push   %r15
  401822:	49 89 f7             	mov    %rsi,%r15
  401825:	41 56                	push   %r14
  401827:	49 89 d6             	mov    %rdx,%r14
  40182a:	41 55                	push   %r13
  40182c:	49 89 cd             	mov    %rcx,%r13
  40182f:	41 54                	push   %r12
  401831:	4d 89 c4             	mov    %r8,%r12
  401834:	55                   	push   %rbp
  401835:	53                   	push   %rbx
  401836:	48 89 fb             	mov    %rdi,%rbx
    client_t* clientPtr;

    clientPtr = (client_t*)malloc(sizeof(client_t));
  401839:	bf 38 00 00 00       	mov    $0x38,%edi
              manager_t* managerPtr,
              long numOperation,
              long numQueryPerTransaction,
              long queryRange,
              long percentUser)
{
  40183e:	48 83 ec 18          	sub    $0x18,%rsp
  401842:	4c 89 4c 24 08       	mov    %r9,0x8(%rsp)
    client_t* clientPtr;

    clientPtr = (client_t*)malloc(sizeof(client_t));
  401847:	e8 34 f4 ff ff       	callq  400c80 <malloc@plt>
    if (clientPtr == NULL) {
  40184c:	48 85 c0             	test   %rax,%rax
              long queryRange,
              long percentUser)
{
    client_t* clientPtr;

    clientPtr = (client_t*)malloc(sizeof(client_t));
  40184f:	48 89 c5             	mov    %rax,%rbp
    if (clientPtr == NULL) {
  401852:	74 4c                	je     4018a0 <client_alloc+0x80>
        return NULL;
    }

    clientPtr->randomPtr = random_alloc();
  401854:	31 c0                	xor    %eax,%eax
  401856:	e8 a5 38 00 00       	callq  405100 <random_alloc>
    if (clientPtr->randomPtr == NULL) {
  40185b:	48 85 c0             	test   %rax,%rax
    clientPtr = (client_t*)malloc(sizeof(client_t));
    if (clientPtr == NULL) {
        return NULL;
    }

    clientPtr->randomPtr = random_alloc();
  40185e:	48 89 45 10          	mov    %rax,0x10(%rbp)
    if (clientPtr->randomPtr == NULL) {
  401862:	74 3c                	je     4018a0 <client_alloc+0x80>
        return NULL;
    }

    clientPtr->id = id;
    clientPtr->managerPtr = managerPtr;
    random_seed(clientPtr->randomPtr, id);
  401864:	48 89 c7             	mov    %rax,%rdi
  401867:	48 89 de             	mov    %rbx,%rsi
    clientPtr->randomPtr = random_alloc();
    if (clientPtr->randomPtr == NULL) {
        return NULL;
    }

    clientPtr->id = id;
  40186a:	48 89 5d 00          	mov    %rbx,0x0(%rbp)
    clientPtr->managerPtr = managerPtr;
  40186e:	4c 89 7d 08          	mov    %r15,0x8(%rbp)
    random_seed(clientPtr->randomPtr, id);
  401872:	e8 29 39 00 00       	callq  4051a0 <random_seed>
    clientPtr->numOperation = numOperation;
    clientPtr->numQueryPerTransaction = numQueryPerTransaction;
    clientPtr->queryRange = queryRange;
    clientPtr->percentUser = percentUser;
  401877:	48 8b 44 24 08       	mov    0x8(%rsp),%rax
    }

    clientPtr->id = id;
    clientPtr->managerPtr = managerPtr;
    random_seed(clientPtr->randomPtr, id);
    clientPtr->numOperation = numOperation;
  40187c:	4c 89 75 18          	mov    %r14,0x18(%rbp)
    clientPtr->numQueryPerTransaction = numQueryPerTransaction;
  401880:	4c 89 6d 20          	mov    %r13,0x20(%rbp)
    clientPtr->queryRange = queryRange;
  401884:	4c 89 65 28          	mov    %r12,0x28(%rbp)
    clientPtr->percentUser = percentUser;
  401888:	48 89 45 30          	mov    %rax,0x30(%rbp)

    return clientPtr;
  40188c:	48 89 e8             	mov    %rbp,%rax
}
  40188f:	48 83 c4 18          	add    $0x18,%rsp
  401893:	5b                   	pop    %rbx
  401894:	5d                   	pop    %rbp
  401895:	41 5c                	pop    %r12
  401897:	41 5d                	pop    %r13
  401899:	41 5e                	pop    %r14
  40189b:	41 5f                	pop    %r15
  40189d:	c3                   	retq   
  40189e:	66 90                	xchg   %ax,%ax
{
    client_t* clientPtr;

    clientPtr = (client_t*)malloc(sizeof(client_t));
    if (clientPtr == NULL) {
        return NULL;
  4018a0:	31 c0                	xor    %eax,%eax
  4018a2:	eb eb                	jmp    40188f <client_alloc+0x6f>
  4018a4:	66 66 66 2e 0f 1f 84 	data32 data32 nopw %cs:0x0(%rax,%rax,1)
  4018ab:	00 00 00 00 00 

00000000004018b0 <client_free>:
 * =============================================================================
 */
void
client_free (client_t* clientPtr)
{
    free(clientPtr);
  4018b0:	e9 fb f3 ff ff       	jmpq   400cb0 <free@plt>
  4018b5:	66 66 2e 0f 1f 84 00 	data32 nopw %cs:0x0(%rax,%rax,1)
  4018bc:	00 00 00 00 

00000000004018c0 <client_run>:
 * -- Execute list operations on the database
 * =============================================================================
 */
void
client_run (void* argPtr)
{
  4018c0:	41 57                	push   %r15
    TM_THREAD_ENTER();

    long myId = thread_getId();
  4018c2:	31 c0                	xor    %eax,%eax
 * -- Execute list operations on the database
 * =============================================================================
 */
void
client_run (void* argPtr)
{
  4018c4:	41 56                	push   %r14
  4018c6:	41 55                	push   %r13
  4018c8:	41 54                	push   %r12
  4018ca:	55                   	push   %rbp
  4018cb:	53                   	push   %rbx
  4018cc:	48 89 fb             	mov    %rdi,%rbx
  4018cf:	48 81 ec a8 00 00 00 	sub    $0xa8,%rsp
    TM_THREAD_ENTER();

    long myId = thread_getId();
  4018d6:	e8 15 71 00 00       	callq  4089f0 <thread_getId>
    client_t* clientPtr = ((client_t**)argPtr)[myId];
  4018db:	48 8b 04 c3          	mov    (%rbx,%rax,8),%rax

    manager_t* managerPtr = clientPtr->managerPtr;
  4018df:	48 8b 70 08          	mov    0x8(%rax),%rsi
    random_t*  randomPtr  = clientPtr->randomPtr;
  4018e3:	48 8b 58 10          	mov    0x10(%rax),%rbx

    long numOperation           = clientPtr->numOperation;
    long numQueryPerTransaction = clientPtr->numQueryPerTransaction;
    long queryRange             = clientPtr->queryRange;
  4018e7:	4c 8b 70 28          	mov    0x28(%rax),%r14
    TM_THREAD_ENTER();

    long myId = thread_getId();
    client_t* clientPtr = ((client_t**)argPtr)[myId];

    manager_t* managerPtr = clientPtr->managerPtr;
  4018eb:	48 89 74 24 10       	mov    %rsi,0x10(%rsp)
    random_t*  randomPtr  = clientPtr->randomPtr;

    long numOperation           = clientPtr->numOperation;
  4018f0:	48 8b 70 18          	mov    0x18(%rax),%rsi
  4018f4:	49 89 f5             	mov    %rsi,%r13
  4018f7:	48 89 74 24 38       	mov    %rsi,0x38(%rsp)
    long numQueryPerTransaction = clientPtr->numQueryPerTransaction;
    long queryRange             = clientPtr->queryRange;
    long percentUser            = clientPtr->percentUser;
  4018fc:	48 8b 70 30          	mov    0x30(%rax),%rsi

    long* types  = (long*)P_MALLOC(numQueryPerTransaction * sizeof(long));
  401900:	48 8b 40 20          	mov    0x20(%rax),%rax
    random_t*  randomPtr  = clientPtr->randomPtr;

    long numOperation           = clientPtr->numOperation;
    long numQueryPerTransaction = clientPtr->numQueryPerTransaction;
    long queryRange             = clientPtr->queryRange;
    long percentUser            = clientPtr->percentUser;
  401904:	48 89 74 24 20       	mov    %rsi,0x20(%rsp)

    long* types  = (long*)P_MALLOC(numQueryPerTransaction * sizeof(long));
  401909:	4c 8d 24 c5 00 00 00 	lea    0x0(,%rax,8),%r12
  401910:	00 
  401911:	48 89 44 24 28       	mov    %rax,0x28(%rsp)
  401916:	4c 89 e7             	mov    %r12,%rdi
  401919:	e8 62 f3 ff ff       	callq  400c80 <malloc@plt>
    long* ids    = (long*)P_MALLOC(numQueryPerTransaction * sizeof(long));
  40191e:	4c 89 e7             	mov    %r12,%rdi
    long numOperation           = clientPtr->numOperation;
    long numQueryPerTransaction = clientPtr->numQueryPerTransaction;
    long queryRange             = clientPtr->queryRange;
    long percentUser            = clientPtr->percentUser;

    long* types  = (long*)P_MALLOC(numQueryPerTransaction * sizeof(long));
  401921:	49 89 c7             	mov    %rax,%r15
    long* ids    = (long*)P_MALLOC(numQueryPerTransaction * sizeof(long));
  401924:	e8 57 f3 ff ff       	callq  400c80 <malloc@plt>
    long* ops    = (long*)P_MALLOC(numQueryPerTransaction * sizeof(long));
  401929:	4c 89 e7             	mov    %r12,%rdi
    long numQueryPerTransaction = clientPtr->numQueryPerTransaction;
    long queryRange             = clientPtr->queryRange;
    long percentUser            = clientPtr->percentUser;

    long* types  = (long*)P_MALLOC(numQueryPerTransaction * sizeof(long));
    long* ids    = (long*)P_MALLOC(numQueryPerTransaction * sizeof(long));
  40192c:	48 89 c5             	mov    %rax,%rbp
    long* ops    = (long*)P_MALLOC(numQueryPerTransaction * sizeof(long));
  40192f:	e8 4c f3 ff ff       	callq  400c80 <malloc@plt>
    long* prices = (long*)P_MALLOC(numQueryPerTransaction * sizeof(long));
  401934:	4c 89 e7             	mov    %r12,%rdi
    long queryRange             = clientPtr->queryRange;
    long percentUser            = clientPtr->percentUser;

    long* types  = (long*)P_MALLOC(numQueryPerTransaction * sizeof(long));
    long* ids    = (long*)P_MALLOC(numQueryPerTransaction * sizeof(long));
    long* ops    = (long*)P_MALLOC(numQueryPerTransaction * sizeof(long));
  401937:	48 89 44 24 08       	mov    %rax,0x8(%rsp)
    long* prices = (long*)P_MALLOC(numQueryPerTransaction * sizeof(long));
  40193c:	e8 3f f3 ff ff       	callq  400c80 <malloc@plt>

    long i;

    for (i = 0; i < numOperation; i++) {
  401941:	4d 85 ed             	test   %r13,%r13
    long percentUser            = clientPtr->percentUser;

    long* types  = (long*)P_MALLOC(numQueryPerTransaction * sizeof(long));
    long* ids    = (long*)P_MALLOC(numQueryPerTransaction * sizeof(long));
    long* ops    = (long*)P_MALLOC(numQueryPerTransaction * sizeof(long));
    long* prices = (long*)P_MALLOC(numQueryPerTransaction * sizeof(long));
  401944:	48 89 44 24 18       	mov    %rax,0x18(%rsp)

    long i;

    for (i = 0; i < numOperation; i++) {
  401949:	0f 8e f7 02 00 00    	jle    401c46 <client_run+0x386>
  40194f:	48 c7 44 24 30 00 00 	movq   $0x0,0x30(%rsp)
  401956:	00 00 

        long r = random_generate(randomPtr) % 100;
  401958:	48 89 df             	mov    %rbx,%rdi
  40195b:	e8 60 38 00 00       	callq  4051c0 <random_generate>
  401960:	48 89 c2             	mov    %rax,%rdx
  401963:	48 89 c1             	mov    %rax,%rcx
  401966:	48 b8 c3 f5 28 5c 8f 	movabs $0x28f5c28f5c28f5c3,%rax
  40196d:	c2 f5 28 
  401970:	48 c1 ea 02          	shr    $0x2,%rdx
  401974:	48 f7 e2             	mul    %rdx
  401977:	48 c1 ea 02          	shr    $0x2,%rdx
  40197b:	48 8d 04 92          	lea    (%rdx,%rdx,4),%rax
  40197f:	48 8d 04 80          	lea    (%rax,%rax,4),%rax
  401983:	48 c1 e0 02          	shl    $0x2,%rax
  401987:	48 29 c1             	sub    %rax,%rcx
static action_t
selectAction (long r, long percentUser)
{
    action_t action;

    if (r < percentUser) {
  40198a:	48 39 4c 24 20       	cmp    %rcx,0x20(%rsp)

    long i;

    for (i = 0; i < numOperation; i++) {

        long r = random_generate(randomPtr) % 100;
  40198f:	48 89 ca             	mov    %rcx,%rdx
static action_t
selectAction (long r, long percentUser)
{
    action_t action;

    if (r < percentUser) {
  401992:	0f 8f 48 01 00 00    	jg     401ae0 <client_run+0x220>
        action = ACTION_MAKE_RESERVATION;
    } else if (r & 1) {
  401998:	83 e2 01             	and    $0x1,%edx
  40199b:	0f 85 5f 02 00 00    	jne    401c00 <client_run+0x340>
                TM_END();
                break;
            }

            case ACTION_UPDATE_TABLES: {
                long numUpdate = random_generate(randomPtr) % numQueryPerTransaction + 1;
  4019a1:	48 89 df             	mov    %rbx,%rdi
  4019a4:	e8 17 38 00 00       	callq  4051c0 <random_generate>
  4019a9:	31 d2                	xor    %edx,%edx
  4019ab:	48 f7 74 24 28       	divq   0x28(%rsp)
  4019b0:	4c 8d 6a 01          	lea    0x1(%rdx),%r13
                long n;
                for (n = 0; n < numUpdate; n++) {
  4019b4:	4d 85 ed             	test   %r13,%r13
  4019b7:	0f 8e 73 02 00 00    	jle    401c30 <client_run+0x370>
  4019bd:	45 31 e4             	xor    %r12d,%r12d
  4019c0:	eb 13                	jmp    4019d5 <client_run+0x115>
  4019c2:	66 0f 1f 44 00 00    	nopw   0x0(%rax,%rax,1)
  4019c8:	49 83 c4 01          	add    $0x1,%r12
  4019cc:	4d 39 ec             	cmp    %r13,%r12
  4019cf:	0f 84 97 00 00 00    	je     401a6c <client_run+0x1ac>
                    types[n] = random_generate(randomPtr) % NUM_RESERVATION_TYPE;
  4019d5:	48 89 df             	mov    %rbx,%rdi
  4019d8:	e8 e3 37 00 00       	callq  4051c0 <random_generate>
  4019dd:	48 89 c1             	mov    %rax,%rcx
  4019e0:	48 b8 ab aa aa aa aa 	movabs $0xaaaaaaaaaaaaaaab,%rax
  4019e7:	aa aa aa 
                    ids[n] = (random_generate(randomPtr) % queryRange) + 1;
  4019ea:	48 89 df             	mov    %rbx,%rdi

            case ACTION_UPDATE_TABLES: {
                long numUpdate = random_generate(randomPtr) % numQueryPerTransaction + 1;
                long n;
                for (n = 0; n < numUpdate; n++) {
                    types[n] = random_generate(randomPtr) % NUM_RESERVATION_TYPE;
  4019ed:	48 f7 e1             	mul    %rcx
  4019f0:	48 d1 ea             	shr    %rdx
  4019f3:	48 8d 04 52          	lea    (%rdx,%rdx,2),%rax
  4019f7:	48 29 c1             	sub    %rax,%rcx
  4019fa:	4b 89 0c e7          	mov    %rcx,(%r15,%r12,8)
                    ids[n] = (random_generate(randomPtr) % queryRange) + 1;
  4019fe:	e8 bd 37 00 00       	callq  4051c0 <random_generate>
  401a03:	31 d2                	xor    %edx,%edx
                    ops[n] = random_generate(randomPtr) % 2;
  401a05:	48 89 df             	mov    %rbx,%rdi
            case ACTION_UPDATE_TABLES: {
                long numUpdate = random_generate(randomPtr) % numQueryPerTransaction + 1;
                long n;
                for (n = 0; n < numUpdate; n++) {
                    types[n] = random_generate(randomPtr) % NUM_RESERVATION_TYPE;
                    ids[n] = (random_generate(randomPtr) % queryRange) + 1;
  401a08:	49 f7 f6             	div    %r14
  401a0b:	48 83 c2 01          	add    $0x1,%rdx
  401a0f:	4a 89 54 e5 00       	mov    %rdx,0x0(%rbp,%r12,8)
                    ops[n] = random_generate(randomPtr) % 2;
  401a14:	e8 a7 37 00 00       	callq  4051c0 <random_generate>
  401a19:	48 8b 74 24 08       	mov    0x8(%rsp),%rsi
  401a1e:	83 e0 01             	and    $0x1,%eax
                    if (ops[n]) {
  401a21:	48 85 c0             	test   %rax,%rax
                long numUpdate = random_generate(randomPtr) % numQueryPerTransaction + 1;
                long n;
                for (n = 0; n < numUpdate; n++) {
                    types[n] = random_generate(randomPtr) % NUM_RESERVATION_TYPE;
                    ids[n] = (random_generate(randomPtr) % queryRange) + 1;
                    ops[n] = random_generate(randomPtr) % 2;
  401a24:	4a 89 04 e6          	mov    %rax,(%rsi,%r12,8)
                    if (ops[n]) {
  401a28:	74 9e                	je     4019c8 <client_run+0x108>
                        prices[n] = ((random_generate(randomPtr) % 5) * 10) + 50;
  401a2a:	48 89 df             	mov    %rbx,%rdi
  401a2d:	e8 8e 37 00 00       	callq  4051c0 <random_generate>
  401a32:	48 89 c1             	mov    %rax,%rcx
  401a35:	48 b8 cd cc cc cc cc 	movabs $0xcccccccccccccccd,%rax
  401a3c:	cc cc cc 
  401a3f:	48 8b 74 24 18       	mov    0x18(%rsp),%rsi
  401a44:	48 f7 e1             	mul    %rcx
  401a47:	48 c1 ea 02          	shr    $0x2,%rdx
  401a4b:	48 8d 04 92          	lea    (%rdx,%rdx,4),%rax
  401a4f:	48 29 c1             	sub    %rax,%rcx
  401a52:	48 8d 04 89          	lea    (%rcx,%rcx,4),%rax
  401a56:	48 8d 44 00 32       	lea    0x32(%rax,%rax,1),%rax
  401a5b:	4a 89 04 e6          	mov    %rax,(%rsi,%r12,8)
            }

            case ACTION_UPDATE_TABLES: {
                long numUpdate = random_generate(randomPtr) % numQueryPerTransaction + 1;
                long n;
                for (n = 0; n < numUpdate; n++) {
  401a5f:	49 83 c4 01          	add    $0x1,%r12
  401a63:	4d 39 ec             	cmp    %r13,%r12
  401a66:	0f 85 69 ff ff ff    	jne    4019d5 <client_run+0x115>
  401a6c:	45 31 e4             	xor    %r12d,%r12d
  401a6f:	48 89 5c 24 40       	mov    %rbx,0x40(%rsp)
  401a74:	4c 89 74 24 48       	mov    %r14,0x48(%rsp)
  401a79:	48 8b 5c 24 10       	mov    0x10(%rsp),%rbx
  401a7e:	4d 89 e6             	mov    %r12,%r14
  401a81:	4c 8b 64 24 08       	mov    0x8(%rsp),%r12
                TM_BEGIN();
                for (n = 0; n < numUpdate; n++) {
                    long t = types[n];
                    long id = ids[n];
                    long doAdd = ops[n];
                    if (doAdd) {
  401a86:	4b 83 3c f4 00       	cmpq   $0x0,(%r12,%r14,8)
                        prices[n] = ((random_generate(randomPtr) % 5) * 10) + 50;
                    }
                }
                TM_BEGIN();
                for (n = 0; n < numUpdate; n++) {
                    long t = types[n];
  401a8b:	4b 8b 04 f7          	mov    (%r15,%r14,8),%rax
                    long id = ids[n];
  401a8f:	4a 8b 74 f5 00       	mov    0x0(%rbp,%r14,8),%rsi
                    long doAdd = ops[n];
                    if (doAdd) {
  401a94:	0f 84 c6 01 00 00    	je     401c60 <client_run+0x3a0>
                        long newPrice = prices[n];
  401a9a:	48 8b 7c 24 18       	mov    0x18(%rsp),%rdi
                        switch (t) {
  401a9f:	48 83 f8 01          	cmp    $0x1,%rax
                for (n = 0; n < numUpdate; n++) {
                    long t = types[n];
                    long id = ids[n];
                    long doAdd = ops[n];
                    if (doAdd) {
                        long newPrice = prices[n];
  401aa3:	4a 8b 0c f7          	mov    (%rdi,%r14,8),%rcx
                        switch (t) {
  401aa7:	0f 84 83 03 00 00    	je     401e30 <client_run+0x570>
  401aad:	48 83 f8 02          	cmp    $0x2,%rax
  401ab1:	0f 84 99 03 00 00    	je     401e50 <client_run+0x590>
  401ab7:	48 85 c0             	test   %rax,%rax
  401aba:	0f 84 80 03 00 00    	je     401e40 <client_run+0x580>
                                break;
                            case RESERVATION_ROOM:
                                MANAGER_ADD_ROOM(managerPtr, id, 100, newPrice);
                                break;
                            default:
                                assert(0);
  401ac0:	b9 3d 8b 40 00       	mov    $0x408b3d,%ecx
  401ac5:	ba 1d 01 00 00       	mov    $0x11d,%edx
  401aca:	be 34 8b 40 00       	mov    $0x408b34,%esi
  401acf:	bf f9 8d 40 00       	mov    $0x408df9,%edi
  401ad4:	e8 77 f1 ff ff       	callq  400c50 <__assert_fail@plt>
  401ad9:	0f 1f 80 00 00 00 00 	nopl   0x0(%rax)

            case ACTION_MAKE_RESERVATION: {
                long maxPrices[NUM_RESERVATION_TYPE] = { -1, -1, -1 };
                long maxIds[NUM_RESERVATION_TYPE] = { -1, -1, -1 };
                long n;
                long numQuery = random_generate(randomPtr) % numQueryPerTransaction + 1;
  401ae0:	48 89 df             	mov    %rbx,%rdi
        action_t action = selectAction(r, percentUser);

        switch (action) {

            case ACTION_MAKE_RESERVATION: {
                long maxPrices[NUM_RESERVATION_TYPE] = { -1, -1, -1 };
  401ae3:	48 c7 44 24 60 ff ff 	movq   $0xffffffffffffffff,0x60(%rsp)
  401aea:	ff ff 
  401aec:	48 c7 44 24 68 ff ff 	movq   $0xffffffffffffffff,0x68(%rsp)
  401af3:	ff ff 
  401af5:	48 c7 44 24 70 ff ff 	movq   $0xffffffffffffffff,0x70(%rsp)
  401afc:	ff ff 
                long maxIds[NUM_RESERVATION_TYPE] = { -1, -1, -1 };
  401afe:	48 c7 84 24 80 00 00 	movq   $0xffffffffffffffff,0x80(%rsp)
  401b05:	00 ff ff ff ff 
  401b0a:	48 c7 84 24 88 00 00 	movq   $0xffffffffffffffff,0x88(%rsp)
  401b11:	00 ff ff ff ff 
  401b16:	48 c7 84 24 90 00 00 	movq   $0xffffffffffffffff,0x90(%rsp)
  401b1d:	00 ff ff ff ff 
                long n;
                long numQuery = random_generate(randomPtr) % numQueryPerTransaction + 1;
  401b22:	e8 99 36 00 00       	callq  4051c0 <random_generate>
  401b27:	31 d2                	xor    %edx,%edx
                long customerId = random_generate(randomPtr) % queryRange + 1;
  401b29:	48 89 df             	mov    %rbx,%rdi

            case ACTION_MAKE_RESERVATION: {
                long maxPrices[NUM_RESERVATION_TYPE] = { -1, -1, -1 };
                long maxIds[NUM_RESERVATION_TYPE] = { -1, -1, -1 };
                long n;
                long numQuery = random_generate(randomPtr) % numQueryPerTransaction + 1;
  401b2c:	48 f7 74 24 28       	divq   0x28(%rsp)
  401b31:	49 89 d4             	mov    %rdx,%r12
                long customerId = random_generate(randomPtr) % queryRange + 1;
  401b34:	e8 87 36 00 00       	callq  4051c0 <random_generate>
  401b39:	31 d2                	xor    %edx,%edx

            case ACTION_MAKE_RESERVATION: {
                long maxPrices[NUM_RESERVATION_TYPE] = { -1, -1, -1 };
                long maxIds[NUM_RESERVATION_TYPE] = { -1, -1, -1 };
                long n;
                long numQuery = random_generate(randomPtr) % numQueryPerTransaction + 1;
  401b3b:	49 83 c4 01          	add    $0x1,%r12
                long customerId = random_generate(randomPtr) % queryRange + 1;
  401b3f:	49 f7 f6             	div    %r14
                for (n = 0; n < numQuery; n++) {
  401b42:	4d 85 e4             	test   %r12,%r12
            case ACTION_MAKE_RESERVATION: {
                long maxPrices[NUM_RESERVATION_TYPE] = { -1, -1, -1 };
                long maxIds[NUM_RESERVATION_TYPE] = { -1, -1, -1 };
                long n;
                long numQuery = random_generate(randomPtr) % numQueryPerTransaction + 1;
                long customerId = random_generate(randomPtr) % queryRange + 1;
  401b45:	48 8d 42 01          	lea    0x1(%rdx),%rax
  401b49:	48 89 44 24 40       	mov    %rax,0x40(%rsp)
                for (n = 0; n < numQuery; n++) {
  401b4e:	0f 8e dc 00 00 00    	jle    401c30 <client_run+0x370>
  401b54:	45 31 ed             	xor    %r13d,%r13d
  401b57:	66 0f 1f 84 00 00 00 	nopw   0x0(%rax,%rax,1)
  401b5e:	00 00 
                    types[n] = random_generate(randomPtr) % NUM_RESERVATION_TYPE;
  401b60:	48 89 df             	mov    %rbx,%rdi
  401b63:	e8 58 36 00 00       	callq  4051c0 <random_generate>
  401b68:	48 89 c1             	mov    %rax,%rcx
  401b6b:	48 b8 ab aa aa aa aa 	movabs $0xaaaaaaaaaaaaaaab,%rax
  401b72:	aa aa aa 
                    ids[n] = (random_generate(randomPtr) % queryRange) + 1;
  401b75:	48 89 df             	mov    %rbx,%rdi
                long maxIds[NUM_RESERVATION_TYPE] = { -1, -1, -1 };
                long n;
                long numQuery = random_generate(randomPtr) % numQueryPerTransaction + 1;
                long customerId = random_generate(randomPtr) % queryRange + 1;
                for (n = 0; n < numQuery; n++) {
                    types[n] = random_generate(randomPtr) % NUM_RESERVATION_TYPE;
  401b78:	48 f7 e1             	mul    %rcx
  401b7b:	48 d1 ea             	shr    %rdx
  401b7e:	48 8d 04 52          	lea    (%rdx,%rdx,2),%rax
  401b82:	48 29 c1             	sub    %rax,%rcx
  401b85:	4b 89 0c ef          	mov    %rcx,(%r15,%r13,8)
                    ids[n] = (random_generate(randomPtr) % queryRange) + 1;
  401b89:	e8 32 36 00 00       	callq  4051c0 <random_generate>
  401b8e:	31 d2                	xor    %edx,%edx
  401b90:	49 f7 f6             	div    %r14
  401b93:	48 83 c2 01          	add    $0x1,%rdx
  401b97:	4a 89 54 ed 00       	mov    %rdx,0x0(%rbp,%r13,8)
                long maxPrices[NUM_RESERVATION_TYPE] = { -1, -1, -1 };
                long maxIds[NUM_RESERVATION_TYPE] = { -1, -1, -1 };
                long n;
                long numQuery = random_generate(randomPtr) % numQueryPerTransaction + 1;
                long customerId = random_generate(randomPtr) % queryRange + 1;
                for (n = 0; n < numQuery; n++) {
  401b9c:	49 83 c5 01          	add    $0x1,%r13
  401ba0:	4d 39 e5             	cmp    %r12,%r13
  401ba3:	75 bb                	jne    401b60 <client_run+0x2a0>
  401ba5:	45 31 ed             	xor    %r13d,%r13d
  401ba8:	4c 89 74 24 58       	mov    %r14,0x58(%rsp)
  401bad:	48 c7 44 24 48 00 00 	movq   $0x0,0x48(%rsp)
  401bb4:	00 00 
  401bb6:	4d 89 ee             	mov    %r13,%r14
  401bb9:	48 89 5c 24 50       	mov    %rbx,0x50(%rsp)
  401bbe:	4d 89 e5             	mov    %r12,%r13
                    ids[n] = (random_generate(randomPtr) % queryRange) + 1;
                }
                bool_t isFound = FALSE;
                TM_BEGIN();
                for (n = 0; n < numQuery; n++) {
                    long t = types[n];
  401bc1:	4b 8b 1c f7          	mov    (%r15,%r14,8),%rbx
                    long id = ids[n];
  401bc5:	4e 8b 64 f5 00       	mov    0x0(%rbp,%r14,8),%r12
                    long price = -1;
                    switch (t) {
  401bca:	48 83 fb 01          	cmp    $0x1,%rbx
  401bce:	0f 84 f4 00 00 00    	je     401cc8 <client_run+0x408>
  401bd4:	48 83 fb 02          	cmp    $0x2,%rbx
  401bd8:	0f 84 ba 01 00 00    	je     401d98 <client_run+0x4d8>
  401bde:	48 85 db             	test   %rbx,%rbx
  401be1:	0f 84 b9 00 00 00    	je     401ca0 <client_run+0x3e0>
                            if (MANAGER_QUERY_ROOM(managerPtr, id) >= 0) {
                                price = MANAGER_QUERY_ROOM_PRICE(managerPtr, id);
                            }
                            break;
                        default:
                            assert(0);
  401be7:	b9 3d 8b 40 00       	mov    $0x408b3d,%ecx
  401bec:	ba da 00 00 00       	mov    $0xda,%edx
  401bf1:	be 34 8b 40 00       	mov    $0x408b34,%esi
  401bf6:	bf f9 8d 40 00       	mov    $0x408df9,%edi
  401bfb:	e8 50 f0 ff ff       	callq  400c50 <__assert_fail@plt>
                TM_END();
                break;
            }

            case ACTION_DELETE_CUSTOMER: {
                long customerId = random_generate(randomPtr) % queryRange + 1;
  401c00:	48 89 df             	mov    %rbx,%rdi
  401c03:	e8 b8 35 00 00       	callq  4051c0 <random_generate>
  401c08:	31 d2                	xor    %edx,%edx
                TM_BEGIN();
                long bill = MANAGER_QUERY_CUSTOMER_BILL(managerPtr, customerId);
  401c0a:	48 8b 7c 24 10       	mov    0x10(%rsp),%rdi
                TM_END();
                break;
            }

            case ACTION_DELETE_CUSTOMER: {
                long customerId = random_generate(randomPtr) % queryRange + 1;
  401c0f:	49 f7 f6             	div    %r14
  401c12:	4c 8d 62 01          	lea    0x1(%rdx),%r12
                TM_BEGIN();
                long bill = MANAGER_QUERY_CUSTOMER_BILL(managerPtr, customerId);
  401c16:	4c 89 e6             	mov    %r12,%rsi
  401c19:	e8 a2 13 00 00       	callq  402fc0 <manager_queryCustomerBill>
                if (bill >= 0) {
  401c1e:	48 85 c0             	test   %rax,%rax
  401c21:	78 0d                	js     401c30 <client_run+0x370>
                    MANAGER_DELETE_CUSTOMER(managerPtr, customerId);
  401c23:	48 8b 7c 24 10       	mov    0x10(%rsp),%rdi
  401c28:	4c 89 e6             	mov    %r12,%rsi
  401c2b:	e8 30 11 00 00       	callq  402d60 <manager_deleteCustomer>
    long* ops    = (long*)P_MALLOC(numQueryPerTransaction * sizeof(long));
    long* prices = (long*)P_MALLOC(numQueryPerTransaction * sizeof(long));

    long i;

    for (i = 0; i < numOperation; i++) {
  401c30:	48 83 44 24 30 01    	addq   $0x1,0x30(%rsp)
  401c36:	48 8b 44 24 38       	mov    0x38(%rsp),%rax
  401c3b:	48 39 44 24 30       	cmp    %rax,0x30(%rsp)
  401c40:	0f 85 12 fd ff ff    	jne    401958 <client_run+0x98>
        } /* switch (action) */

    } /* for i */

    TM_THREAD_EXIT();
}
  401c46:	48 81 c4 a8 00 00 00 	add    $0xa8,%rsp
  401c4d:	5b                   	pop    %rbx
  401c4e:	5d                   	pop    %rbp
  401c4f:	41 5c                	pop    %r12
  401c51:	41 5d                	pop    %r13
  401c53:	41 5e                	pop    %r14
  401c55:	41 5f                	pop    %r15
  401c57:	c3                   	retq   
  401c58:	0f 1f 84 00 00 00 00 	nopl   0x0(%rax,%rax,1)
  401c5f:	00 
                                break;
                            default:
                                assert(0);
                        }
                    } else { /* do delete */
                        switch (t) {
  401c60:	48 83 f8 01          	cmp    $0x1,%rax
  401c64:	0f 84 9e 01 00 00    	je     401e08 <client_run+0x548>
  401c6a:	48 83 f8 02          	cmp    $0x2,%rax
  401c6e:	0f 84 64 01 00 00    	je     401dd8 <client_run+0x518>
  401c74:	48 85 c0             	test   %rax,%rax
  401c77:	0f 84 9b 01 00 00    	je     401e18 <client_run+0x558>
                                break;
                            case RESERVATION_ROOM:
                                MANAGER_DELETE_ROOM(managerPtr, id, 100);
                                break;
                            default:
                                assert(0);
  401c7d:	b9 3d 8b 40 00       	mov    $0x408b3d,%ecx
  401c82:	ba 2b 01 00 00       	mov    $0x12b,%edx
  401c87:	be 34 8b 40 00       	mov    $0x408b34,%esi
  401c8c:	bf f9 8d 40 00       	mov    $0x408df9,%edi
  401c91:	e8 ba ef ff ff       	callq  400c50 <__assert_fail@plt>
  401c96:	66 2e 0f 1f 84 00 00 	nopw   %cs:0x0(%rax,%rax,1)
  401c9d:	00 00 00 
                    long t = types[n];
                    long id = ids[n];
                    long price = -1;
                    switch (t) {
                        case RESERVATION_CAR:
                            if (MANAGER_QUERY_CAR(managerPtr, id) >= 0) {
  401ca0:	48 8b 7c 24 10       	mov    0x10(%rsp),%rdi
  401ca5:	4c 89 e6             	mov    %r12,%rsi
  401ca8:	e8 f3 11 00 00       	callq  402ea0 <manager_queryCar>
  401cad:	48 85 c0             	test   %rax,%rax
  401cb0:	78 2c                	js     401cde <client_run+0x41e>
                                price = MANAGER_QUERY_CAR_PRICE(managerPtr, id);
  401cb2:	48 8b 7c 24 10       	mov    0x10(%rsp),%rdi
  401cb7:	4c 89 e6             	mov    %r12,%rsi
  401cba:	e8 11 12 00 00       	callq  402ed0 <manager_queryCarPrice>
  401cbf:	eb 24                	jmp    401ce5 <client_run+0x425>
  401cc1:	0f 1f 80 00 00 00 00 	nopl   0x0(%rax)
                            }
                            break;
                        case RESERVATION_FLIGHT:
                            if (MANAGER_QUERY_FLIGHT(managerPtr, id) >= 0) {
  401cc8:	48 8b 7c 24 10       	mov    0x10(%rsp),%rdi
  401ccd:	4c 89 e6             	mov    %r12,%rsi
  401cd0:	e8 8b 12 00 00       	callq  402f60 <manager_queryFlight>
  401cd5:	48 85 c0             	test   %rax,%rax
  401cd8:	0f 89 e2 00 00 00    	jns    401dc0 <client_run+0x500>
                bool_t isFound = FALSE;
                TM_BEGIN();
                for (n = 0; n < numQuery; n++) {
                    long t = types[n];
                    long id = ids[n];
                    long price = -1;
  401cde:	48 c7 c0 ff ff ff ff 	mov    $0xffffffffffffffff,%rax
                            }
                            break;
                        default:
                            assert(0);
                    }
                    if (price > maxPrices[t]) {
  401ce5:	48 3b 44 dc 60       	cmp    0x60(%rsp,%rbx,8),%rax
  401cea:	7e 16                	jle    401d02 <client_run+0x442>
                        maxPrices[t] = price;
  401cec:	48 89 44 dc 60       	mov    %rax,0x60(%rsp,%rbx,8)
                        maxIds[t] = id;
  401cf1:	4c 89 a4 dc 80 00 00 	mov    %r12,0x80(%rsp,%rbx,8)
  401cf8:	00 
                        isFound = TRUE;
  401cf9:	48 c7 44 24 48 01 00 	movq   $0x1,0x48(%rsp)
  401d00:	00 00 
                    types[n] = random_generate(randomPtr) % NUM_RESERVATION_TYPE;
                    ids[n] = (random_generate(randomPtr) % queryRange) + 1;
                }
                bool_t isFound = FALSE;
                TM_BEGIN();
                for (n = 0; n < numQuery; n++) {
  401d02:	49 83 c6 01          	add    $0x1,%r14
  401d06:	4d 39 f5             	cmp    %r14,%r13
  401d09:	0f 85 b2 fe ff ff    	jne    401bc1 <client_run+0x301>
                        maxPrices[t] = price;
                        maxIds[t] = id;
                        isFound = TRUE;
                    }
                } /* for n */
                if (isFound) {
  401d0f:	48 83 7c 24 48 00    	cmpq   $0x0,0x48(%rsp)
  401d15:	48 8b 5c 24 50       	mov    0x50(%rsp),%rbx
  401d1a:	4c 8b 74 24 58       	mov    0x58(%rsp),%r14
  401d1f:	74 0f                	je     401d30 <client_run+0x470>
                    MANAGER_ADD_CUSTOMER(managerPtr, customerId);
  401d21:	48 8b 74 24 40       	mov    0x40(%rsp),%rsi
  401d26:	48 8b 7c 24 10       	mov    0x10(%rsp),%rdi
  401d2b:	e8 f0 0e 00 00       	callq  402c20 <manager_addCustomer>
  401d30:	48 8b 94 24 80 00 00 	mov    0x80(%rsp),%rdx
  401d37:	00 
  401d38:	4c 8b ac 24 88 00 00 	mov    0x88(%rsp),%r13
  401d3f:	00 
  401d40:	4c 8b a4 24 90 00 00 	mov    0x90(%rsp),%r12
  401d47:	00 
                }
                if (maxIds[RESERVATION_CAR] > 0) {
  401d48:	48 85 d2             	test   %rdx,%rdx
  401d4b:	7e 0f                	jle    401d5c <client_run+0x49c>
                    MANAGER_RESERVE_CAR(managerPtr,
  401d4d:	48 8b 74 24 40       	mov    0x40(%rsp),%rsi
  401d52:	48 8b 7c 24 10       	mov    0x10(%rsp),%rdi
  401d57:	e8 94 12 00 00       	callq  402ff0 <manager_reserveCar>
                                        customerId, maxIds[RESERVATION_CAR]);
                }
                if (maxIds[RESERVATION_FLIGHT] > 0) {
  401d5c:	4d 85 ed             	test   %r13,%r13
  401d5f:	7e 12                	jle    401d73 <client_run+0x4b3>
                    MANAGER_RESERVE_FLIGHT(managerPtr,
  401d61:	48 8b 74 24 40       	mov    0x40(%rsp),%rsi
  401d66:	48 8b 7c 24 10       	mov    0x10(%rsp),%rdi
  401d6b:	4c 89 ea             	mov    %r13,%rdx
  401d6e:	e8 7d 13 00 00       	callq  4030f0 <manager_reserveFlight>
                                           customerId, maxIds[RESERVATION_FLIGHT]);
                }
                if (maxIds[RESERVATION_ROOM] > 0) {
  401d73:	4d 85 e4             	test   %r12,%r12
  401d76:	0f 8e b4 fe ff ff    	jle    401c30 <client_run+0x370>
                    MANAGER_RESERVE_ROOM(managerPtr,
  401d7c:	48 8b 74 24 40       	mov    0x40(%rsp),%rsi
  401d81:	48 8b 7c 24 10       	mov    0x10(%rsp),%rdi
  401d86:	4c 89 e2             	mov    %r12,%rdx
  401d89:	e8 e2 12 00 00       	callq  403070 <manager_reserveRoom>
  401d8e:	e9 9d fe ff ff       	jmpq   401c30 <client_run+0x370>
  401d93:	0f 1f 44 00 00       	nopl   0x0(%rax,%rax,1)
                            if (MANAGER_QUERY_FLIGHT(managerPtr, id) >= 0) {
                                price = MANAGER_QUERY_FLIGHT_PRICE(managerPtr, id);
                            }
                            break;
                        case RESERVATION_ROOM:
                            if (MANAGER_QUERY_ROOM(managerPtr, id) >= 0) {
  401d98:	48 8b 7c 24 10       	mov    0x10(%rsp),%rdi
  401d9d:	4c 89 e6             	mov    %r12,%rsi
  401da0:	e8 5b 11 00 00       	callq  402f00 <manager_queryRoom>
  401da5:	48 85 c0             	test   %rax,%rax
  401da8:	0f 88 30 ff ff ff    	js     401cde <client_run+0x41e>
                                price = MANAGER_QUERY_ROOM_PRICE(managerPtr, id);
  401dae:	48 8b 7c 24 10       	mov    0x10(%rsp),%rdi
  401db3:	4c 89 e6             	mov    %r12,%rsi
  401db6:	e8 75 11 00 00       	callq  402f30 <manager_queryRoomPrice>
  401dbb:	e9 25 ff ff ff       	jmpq   401ce5 <client_run+0x425>
                                price = MANAGER_QUERY_CAR_PRICE(managerPtr, id);
                            }
                            break;
                        case RESERVATION_FLIGHT:
                            if (MANAGER_QUERY_FLIGHT(managerPtr, id) >= 0) {
                                price = MANAGER_QUERY_FLIGHT_PRICE(managerPtr, id);
  401dc0:	48 8b 7c 24 10       	mov    0x10(%rsp),%rdi
  401dc5:	4c 89 e6             	mov    %r12,%rsi
  401dc8:	e8 c3 11 00 00       	callq  402f90 <manager_queryFlightPrice>
  401dcd:	e9 13 ff ff ff       	jmpq   401ce5 <client_run+0x425>
  401dd2:	66 0f 1f 44 00 00    	nopw   0x0(%rax,%rax,1)
                                break;
                            case RESERVATION_FLIGHT:
                                MANAGER_DELETE_FLIGHT(managerPtr, id);
                                break;
                            case RESERVATION_ROOM:
                                MANAGER_DELETE_ROOM(managerPtr, id, 100);
  401dd8:	ba 64 00 00 00       	mov    $0x64,%edx
  401ddd:	48 89 df             	mov    %rbx,%rdi
  401de0:	e8 fb 0a 00 00       	callq  4028e0 <manager_deleteRoom>
  401de5:	0f 1f 00             	nopl   (%rax)
                    if (ops[n]) {
                        prices[n] = ((random_generate(randomPtr) % 5) * 10) + 50;
                    }
                }
                TM_BEGIN();
                for (n = 0; n < numUpdate; n++) {
  401de8:	49 83 c6 01          	add    $0x1,%r14
  401dec:	4d 39 f5             	cmp    %r14,%r13
  401def:	0f 85 91 fc ff ff    	jne    401a86 <client_run+0x1c6>
  401df5:	48 8b 5c 24 40       	mov    0x40(%rsp),%rbx
  401dfa:	4c 8b 74 24 48       	mov    0x48(%rsp),%r14
  401dff:	e9 2c fe ff ff       	jmpq   401c30 <client_run+0x370>
  401e04:	0f 1f 40 00          	nopl   0x0(%rax)
                        switch (t) {
                            case RESERVATION_CAR:
                                MANAGER_DELETE_CAR(managerPtr, id, 100);
                                break;
                            case RESERVATION_FLIGHT:
                                MANAGER_DELETE_FLIGHT(managerPtr, id);
  401e08:	48 89 df             	mov    %rbx,%rdi
  401e0b:	e8 c0 0d 00 00       	callq  402bd0 <manager_deleteFlight>
                                break;
  401e10:	eb d6                	jmp    401de8 <client_run+0x528>
  401e12:	66 0f 1f 44 00 00    	nopw   0x0(%rax,%rax,1)
                                assert(0);
                        }
                    } else { /* do delete */
                        switch (t) {
                            case RESERVATION_CAR:
                                MANAGER_DELETE_CAR(managerPtr, id, 100);
  401e18:	ba 64 00 00 00       	mov    $0x64,%edx
  401e1d:	48 89 df             	mov    %rbx,%rdi
  401e20:	e8 db 07 00 00       	callq  402600 <manager_deleteCar>
                                break;
  401e25:	eb c1                	jmp    401de8 <client_run+0x528>
  401e27:	66 0f 1f 84 00 00 00 	nopw   0x0(%rax,%rax,1)
  401e2e:	00 00 
                        switch (t) {
                            case RESERVATION_CAR:
                                MANAGER_ADD_CAR(managerPtr, id, 100, newPrice);
                                break;
                            case RESERVATION_FLIGHT:
                                MANAGER_ADD_FLIGHT(managerPtr, id, 100, newPrice);
  401e30:	ba 64 00 00 00       	mov    $0x64,%edx
  401e35:	48 89 df             	mov    %rbx,%rdi
  401e38:	e8 63 0b 00 00       	callq  4029a0 <manager_addFlight>
                                break;
  401e3d:	eb a9                	jmp    401de8 <client_run+0x528>
  401e3f:	90                   	nop
                    long doAdd = ops[n];
                    if (doAdd) {
                        long newPrice = prices[n];
                        switch (t) {
                            case RESERVATION_CAR:
                                MANAGER_ADD_CAR(managerPtr, id, 100, newPrice);
  401e40:	ba 64 00 00 00       	mov    $0x64,%edx
  401e45:	48 89 df             	mov    %rbx,%rdi
  401e48:	e8 83 05 00 00       	callq  4023d0 <manager_addCar>
                                break;
  401e4d:	eb 99                	jmp    401de8 <client_run+0x528>
  401e4f:	90                   	nop
                            case RESERVATION_FLIGHT:
                                MANAGER_ADD_FLIGHT(managerPtr, id, 100, newPrice);
                                break;
                            case RESERVATION_ROOM:
                                MANAGER_ADD_ROOM(managerPtr, id, 100, newPrice);
  401e50:	ba 64 00 00 00       	mov    $0x64,%edx
  401e55:	48 89 df             	mov    %rbx,%rdi
  401e58:	e8 53 08 00 00       	callq  4026b0 <manager_addRoom>
                                break;
  401e5d:	eb 89                	jmp    401de8 <client_run+0x528>
  401e5f:	90                   	nop

0000000000401e60 <compareReservationInfo>:
 * =============================================================================
 */
static long
compareReservationInfo (const void* aPtr, const void* bPtr)
{
    return reservation_info_compare((reservation_info_t*)aPtr,
  401e60:	e9 cb 14 00 00       	jmpq   403330 <reservation_info_compare>
  401e65:	66 66 2e 0f 1f 84 00 	data32 nopw %cs:0x0(%rax,%rax,1)
  401e6c:	00 00 00 00 

0000000000401e70 <customer_alloc>:
 * customer_alloc
 * =============================================================================
 */
customer_t*
customer_alloc (TM_ARGDECL  long id)
{
  401e70:	55                   	push   %rbp
  401e71:	48 89 fd             	mov    %rdi,%rbp
    customer_t* customerPtr;

    customerPtr = (customer_t*)TM_MALLOC(sizeof(customer_t));
  401e74:	bf 10 00 00 00       	mov    $0x10,%edi
 * customer_alloc
 * =============================================================================
 */
customer_t*
customer_alloc (TM_ARGDECL  long id)
{
  401e79:	53                   	push   %rbx
  401e7a:	48 83 ec 08          	sub    $0x8,%rsp
    customer_t* customerPtr;

    customerPtr = (customer_t*)TM_MALLOC(sizeof(customer_t));
  401e7e:	e8 fd ed ff ff       	callq  400c80 <malloc@plt>
    assert(customerPtr != NULL);
  401e83:	48 85 c0             	test   %rax,%rax
customer_t*
customer_alloc (TM_ARGDECL  long id)
{
    customer_t* customerPtr;

    customerPtr = (customer_t*)TM_MALLOC(sizeof(customer_t));
  401e86:	48 89 c3             	mov    %rax,%rbx
    assert(customerPtr != NULL);
  401e89:	74 20                	je     401eab <customer_alloc+0x3b>

    customerPtr->id = id;
  401e8b:	48 89 28             	mov    %rbp,(%rax)

    customerPtr->reservationInfoListPtr = TMLIST_ALLOC(&compareReservationInfo);
  401e8e:	bf 60 1e 40 00       	mov    $0x401e60,%edi
  401e93:	e8 78 21 00 00       	callq  404010 <TMlist_alloc>
    assert(customerPtr->reservationInfoListPtr != NULL);
  401e98:	48 85 c0             	test   %rax,%rax
    customerPtr = (customer_t*)TM_MALLOC(sizeof(customer_t));
    assert(customerPtr != NULL);

    customerPtr->id = id;

    customerPtr->reservationInfoListPtr = TMLIST_ALLOC(&compareReservationInfo);
  401e9b:	48 89 43 08          	mov    %rax,0x8(%rbx)
    assert(customerPtr->reservationInfoListPtr != NULL);
  401e9f:	74 23                	je     401ec4 <customer_alloc+0x54>

    return customerPtr;
}
  401ea1:	48 83 c4 08          	add    $0x8,%rsp
  401ea5:	48 89 d8             	mov    %rbx,%rax
  401ea8:	5b                   	pop    %rbx
  401ea9:	5d                   	pop    %rbp
  401eaa:	c3                   	retq   
customer_alloc (TM_ARGDECL  long id)
{
    customer_t* customerPtr;

    customerPtr = (customer_t*)TM_MALLOC(sizeof(customer_t));
    assert(customerPtr != NULL);
  401eab:	b9 23 8c 40 00       	mov    $0x408c23,%ecx
  401eb0:	ba 69 00 00 00       	mov    $0x69,%edx
  401eb5:	be 48 8b 40 00       	mov    $0x408b48,%esi
  401eba:	bf 53 8b 40 00       	mov    $0x408b53,%edi
  401ebf:	e8 8c ed ff ff       	callq  400c50 <__assert_fail@plt>

    customerPtr->id = id;

    customerPtr->reservationInfoListPtr = TMLIST_ALLOC(&compareReservationInfo);
    assert(customerPtr->reservationInfoListPtr != NULL);
  401ec4:	b9 23 8c 40 00       	mov    $0x408c23,%ecx
  401ec9:	ba 6e 00 00 00       	mov    $0x6e,%edx
  401ece:	be 48 8b 40 00       	mov    $0x408b48,%esi
  401ed3:	bf 70 8b 40 00       	mov    $0x408b70,%edi
  401ed8:	e8 73 ed ff ff       	callq  400c50 <__assert_fail@plt>
  401edd:	0f 1f 00             	nopl   (%rax)

0000000000401ee0 <customer_alloc_seq>:
}


customer_t*
customer_alloc_seq (long id)
{
  401ee0:	55                   	push   %rbp
  401ee1:	48 89 fd             	mov    %rdi,%rbp
    customer_t* customerPtr;

    customerPtr = (customer_t*)malloc(sizeof(customer_t));
  401ee4:	bf 10 00 00 00       	mov    $0x10,%edi
}


customer_t*
customer_alloc_seq (long id)
{
  401ee9:	53                   	push   %rbx
  401eea:	48 83 ec 08          	sub    $0x8,%rsp
    customer_t* customerPtr;

    customerPtr = (customer_t*)malloc(sizeof(customer_t));
  401eee:	e8 8d ed ff ff       	callq  400c80 <malloc@plt>
    assert(customerPtr != NULL);
  401ef3:	48 85 c0             	test   %rax,%rax
customer_t*
customer_alloc_seq (long id)
{
    customer_t* customerPtr;

    customerPtr = (customer_t*)malloc(sizeof(customer_t));
  401ef6:	48 89 c3             	mov    %rax,%rbx
    assert(customerPtr != NULL);
  401ef9:	74 20                	je     401f1b <customer_alloc_seq+0x3b>

    customerPtr->id = id;
  401efb:	48 89 28             	mov    %rbp,(%rax)

    customerPtr->reservationInfoListPtr = list_alloc(&compareReservationInfo);
  401efe:	bf 60 1e 40 00       	mov    $0x401e60,%edi
  401f03:	e8 68 20 00 00       	callq  403f70 <list_alloc>
    assert(customerPtr->reservationInfoListPtr != NULL);
  401f08:	48 85 c0             	test   %rax,%rax
    customerPtr = (customer_t*)malloc(sizeof(customer_t));
    assert(customerPtr != NULL);

    customerPtr->id = id;

    customerPtr->reservationInfoListPtr = list_alloc(&compareReservationInfo);
  401f0b:	48 89 43 08          	mov    %rax,0x8(%rbx)
    assert(customerPtr->reservationInfoListPtr != NULL);
  401f0f:	74 23                	je     401f34 <customer_alloc_seq+0x54>

    return customerPtr;
}
  401f11:	48 83 c4 08          	add    $0x8,%rsp
  401f15:	48 89 d8             	mov    %rbx,%rax
  401f18:	5b                   	pop    %rbx
  401f19:	5d                   	pop    %rbp
  401f1a:	c3                   	retq   
customer_alloc_seq (long id)
{
    customer_t* customerPtr;

    customerPtr = (customer_t*)malloc(sizeof(customer_t));
    assert(customerPtr != NULL);
  401f1b:	b9 10 8c 40 00       	mov    $0x408c10,%ecx
  401f20:	ba 7a 00 00 00       	mov    $0x7a,%edx
  401f25:	be 48 8b 40 00       	mov    $0x408b48,%esi
  401f2a:	bf 53 8b 40 00       	mov    $0x408b53,%edi
  401f2f:	e8 1c ed ff ff       	callq  400c50 <__assert_fail@plt>

    customerPtr->id = id;

    customerPtr->reservationInfoListPtr = list_alloc(&compareReservationInfo);
    assert(customerPtr->reservationInfoListPtr != NULL);
  401f34:	b9 10 8c 40 00       	mov    $0x408c10,%ecx
  401f39:	ba 7f 00 00 00       	mov    $0x7f,%edx
  401f3e:	be 48 8b 40 00       	mov    $0x408b48,%esi
  401f43:	bf 70 8b 40 00       	mov    $0x408b70,%edi
  401f48:	e8 03 ed ff ff       	callq  400c50 <__assert_fail@plt>
  401f4d:	0f 1f 00             	nopl   (%rax)

0000000000401f50 <customer_compare>:
 * =============================================================================
 */
long
customer_compare (customer_t* aPtr, customer_t* bPtr)
{
    return (aPtr->id - bPtr->id);
  401f50:	48 8b 07             	mov    (%rdi),%rax
  401f53:	48 2b 06             	sub    (%rsi),%rax
}
  401f56:	c3                   	retq   
  401f57:	66 0f 1f 84 00 00 00 	nopw   0x0(%rax,%rax,1)
  401f5e:	00 00 

0000000000401f60 <customer_free>:
 * customer_free
 * =============================================================================
 */
void
customer_free (TM_ARGDECL  customer_t* customerPtr)
{
  401f60:	53                   	push   %rbx
  401f61:	48 89 fb             	mov    %rdi,%rbx
    list_t* reservationInfoListPtr =
        (list_t*)TM_SHARED_READ(customerPtr->reservationInfoListPtr);
    TMLIST_FREE(reservationInfoListPtr);
  401f64:	48 8b 7f 08          	mov    0x8(%rdi),%rdi
  401f68:	e8 93 23 00 00       	callq  404300 <TMlist_free>
    TM_FREE(customerPtr);
  401f6d:	48 89 df             	mov    %rbx,%rdi
}
  401f70:	5b                   	pop    %rbx
customer_free (TM_ARGDECL  customer_t* customerPtr)
{
    list_t* reservationInfoListPtr =
        (list_t*)TM_SHARED_READ(customerPtr->reservationInfoListPtr);
    TMLIST_FREE(reservationInfoListPtr);
    TM_FREE(customerPtr);
  401f71:	e9 3a ed ff ff       	jmpq   400cb0 <free@plt>
  401f76:	66 2e 0f 1f 84 00 00 	nopw   %cs:0x0(%rax,%rax,1)
  401f7d:	00 00 00 

0000000000401f80 <customer_addReservationInfo>:
 */
bool_t
customer_addReservationInfo (TM_ARGDECL
                             customer_t* customerPtr,
                             reservation_type_t type, long id, long price)
{
  401f80:	53                   	push   %rbx
  401f81:	48 89 fb             	mov    %rdi,%rbx
  401f84:	89 f7                	mov    %esi,%edi
  401f86:	48 89 d6             	mov    %rdx,%rsi
  401f89:	48 89 ca             	mov    %rcx,%rdx
    reservation_info_t* reservationInfoPtr;

    reservationInfoPtr = RESERVATION_INFO_ALLOC(type, id, price);
  401f8c:	e8 5f 13 00 00       	callq  4032f0 <reservation_info_alloc>
    assert(reservationInfoPtr != NULL);
  401f91:	48 85 c0             	test   %rax,%rax
  401f94:	74 0d                	je     401fa3 <customer_addReservationInfo+0x23>

    list_t* reservationInfoListPtr =
        (list_t*)TM_SHARED_READ(customerPtr->reservationInfoListPtr);

    return TMLIST_INSERT(reservationInfoListPtr, (void*)reservationInfoPtr);
  401f96:	48 8b 7b 08          	mov    0x8(%rbx),%rdi
  401f9a:	48 89 c6             	mov    %rax,%rsi
}
  401f9d:	5b                   	pop    %rbx
    assert(reservationInfoPtr != NULL);

    list_t* reservationInfoListPtr =
        (list_t*)TM_SHARED_READ(customerPtr->reservationInfoListPtr);

    return TMLIST_INSERT(reservationInfoListPtr, (void*)reservationInfoPtr);
  401f9e:	e9 2d 27 00 00       	jmpq   4046d0 <TMlist_insert>
                             reservation_type_t type, long id, long price)
{
    reservation_info_t* reservationInfoPtr;

    reservationInfoPtr = RESERVATION_INFO_ALLOC(type, id, price);
    assert(reservationInfoPtr != NULL);
  401fa3:	b9 f0 8b 40 00       	mov    $0x408bf0,%ecx
  401fa8:	ba ac 00 00 00       	mov    $0xac,%edx
  401fad:	be 48 8b 40 00       	mov    $0x408b48,%esi
  401fb2:	bf a8 8b 40 00       	mov    $0x408ba8,%edi
  401fb7:	e8 94 ec ff ff       	callq  400c50 <__assert_fail@plt>
  401fbc:	0f 1f 40 00          	nopl   0x0(%rax)

0000000000401fc0 <customer_removeReservationInfo>:
 */
bool_t
customer_removeReservationInfo (TM_ARGDECL
                                customer_t* customerPtr,
                                reservation_type_t type, long id)
{
  401fc0:	55                   	push   %rbp
  401fc1:	53                   	push   %rbx
  401fc2:	48 83 ec 28          	sub    $0x28,%rsp

    findReservationInfo.type = type;
    findReservationInfo.id = id;
    /* price not used to compare reservation infos */

    list_t* reservationInfoListPtr =
  401fc6:	48 8b 6f 08          	mov    0x8(%rdi),%rbp
                                customer_t* customerPtr,
                                reservation_type_t type, long id)
{
    reservation_info_t findReservationInfo;

    findReservationInfo.type = type;
  401fca:	89 34 24             	mov    %esi,(%rsp)
    /* price not used to compare reservation infos */

    list_t* reservationInfoListPtr =
        (list_t*)TM_SHARED_READ(customerPtr->reservationInfoListPtr);

    reservation_info_t* reservationInfoPtr =
  401fcd:	48 89 e6             	mov    %rsp,%rsi
                                reservation_type_t type, long id)
{
    reservation_info_t findReservationInfo;

    findReservationInfo.type = type;
    findReservationInfo.id = id;
  401fd0:	48 89 54 24 08       	mov    %rdx,0x8(%rsp)
    /* price not used to compare reservation infos */

    list_t* reservationInfoListPtr =
        (list_t*)TM_SHARED_READ(customerPtr->reservationInfoListPtr);

    reservation_info_t* reservationInfoPtr =
  401fd5:	48 89 ef             	mov    %rbp,%rdi
  401fd8:	e8 33 25 00 00       	callq  404510 <TMlist_find>
        (reservation_info_t*)TMLIST_FIND(reservationInfoListPtr,
                                         &findReservationInfo);

    if (reservationInfoPtr == NULL) {
  401fdd:	48 85 c0             	test   %rax,%rax
    /* price not used to compare reservation infos */

    list_t* reservationInfoListPtr =
        (list_t*)TM_SHARED_READ(customerPtr->reservationInfoListPtr);

    reservation_info_t* reservationInfoPtr =
  401fe0:	48 89 c3             	mov    %rax,%rbx
        (reservation_info_t*)TMLIST_FIND(reservationInfoListPtr,
                                         &findReservationInfo);

    if (reservationInfoPtr == NULL) {
  401fe3:	74 2b                	je     402010 <customer_removeReservationInfo+0x50>
        return FALSE;
    }

    bool_t status = TMLIST_REMOVE(reservationInfoListPtr,
  401fe5:	48 89 e6             	mov    %rsp,%rsi
  401fe8:	48 89 ef             	mov    %rbp,%rdi
  401feb:	e8 e0 28 00 00       	callq  4048d0 <TMlist_remove>
                                  (void*)&findReservationInfo);
    if (status == FALSE) {
  401ff0:	48 85 c0             	test   %rax,%rax
  401ff3:	74 24                	je     402019 <customer_removeReservationInfo+0x59>
        TM_RESTART();
    }

    RESERVATION_INFO_FREE(reservationInfoPtr);
  401ff5:	48 89 df             	mov    %rbx,%rdi
  401ff8:	e8 23 13 00 00       	callq  403320 <reservation_info_free>

    return TRUE;
}
  401ffd:	48 83 c4 28          	add    $0x28,%rsp
        TM_RESTART();
    }

    RESERVATION_INFO_FREE(reservationInfoPtr);

    return TRUE;
  402001:	b8 01 00 00 00       	mov    $0x1,%eax
}
  402006:	5b                   	pop    %rbx
  402007:	5d                   	pop    %rbp
  402008:	c3                   	retq   
  402009:	0f 1f 80 00 00 00 00 	nopl   0x0(%rax)
  402010:	48 83 c4 28          	add    $0x28,%rsp
    reservation_info_t* reservationInfoPtr =
        (reservation_info_t*)TMLIST_FIND(reservationInfoListPtr,
                                         &findReservationInfo);

    if (reservationInfoPtr == NULL) {
        return FALSE;
  402014:	31 c0                	xor    %eax,%eax
    }

    RESERVATION_INFO_FREE(reservationInfoPtr);

    return TRUE;
}
  402016:	5b                   	pop    %rbx
  402017:	5d                   	pop    %rbp
  402018:	c3                   	retq   
    }

    bool_t status = TMLIST_REMOVE(reservationInfoListPtr,
                                  (void*)&findReservationInfo);
    if (status == FALSE) {
        TM_RESTART();
  402019:	b9 d0 8b 40 00       	mov    $0x408bd0,%ecx
  40201e:	ba d3 00 00 00       	mov    $0xd3,%edx
  402023:	be 48 8b 40 00       	mov    $0x408b48,%esi
  402028:	bf f9 8d 40 00       	mov    $0x408df9,%edi
  40202d:	e8 1e ec ff ff       	callq  400c50 <__assert_fail@plt>
  402032:	66 66 66 66 66 2e 0f 	data32 data32 data32 data32 nopw %cs:0x0(%rax,%rax,1)
  402039:	1f 84 00 00 00 00 00 

0000000000402040 <customer_getBill>:
 * -- Returns total cost of reservations
 * =============================================================================
 */
long
customer_getBill (TM_ARGDECL  customer_t* customerPtr)
{
  402040:	55                   	push   %rbp
    long bill = 0;
  402041:	31 ed                	xor    %ebp,%ebp
 * -- Returns total cost of reservations
 * =============================================================================
 */
long
customer_getBill (TM_ARGDECL  customer_t* customerPtr)
{
  402043:	53                   	push   %rbx
  402044:	48 83 ec 18          	sub    $0x18,%rsp
    long bill = 0;
    list_iter_t it;
    list_t* reservationInfoListPtr =
  402048:	48 8b 5f 08          	mov    0x8(%rdi),%rbx
        (list_t*)TM_SHARED_READ(customerPtr->reservationInfoListPtr);

    TMLIST_ITER_RESET(&it, reservationInfoListPtr);
  40204c:	48 89 e7             	mov    %rsp,%rdi
  40204f:	48 89 de             	mov    %rbx,%rsi
  402052:	e8 c9 1e 00 00       	callq  403f20 <TMlist_iter_reset>
    while (TMLIST_ITER_HASNEXT(&it, reservationInfoListPtr)) {
  402057:	eb 16                	jmp    40206f <customer_getBill+0x2f>
  402059:	0f 1f 80 00 00 00 00 	nopl   0x0(%rax)
        reservation_info_t* reservationInfoPtr =
  402060:	48 89 de             	mov    %rbx,%rsi
  402063:	48 89 e7             	mov    %rsp,%rdi
  402066:	e8 f5 1e 00 00       	callq  403f60 <TMlist_iter_next>
            (reservation_info_t*)TMLIST_ITER_NEXT(&it, reservationInfoListPtr);
        bill += reservationInfoPtr->price;
  40206b:	48 03 68 10          	add    0x10(%rax),%rbp
    list_iter_t it;
    list_t* reservationInfoListPtr =
        (list_t*)TM_SHARED_READ(customerPtr->reservationInfoListPtr);

    TMLIST_ITER_RESET(&it, reservationInfoListPtr);
    while (TMLIST_ITER_HASNEXT(&it, reservationInfoListPtr)) {
  40206f:	48 89 de             	mov    %rbx,%rsi
  402072:	48 89 e7             	mov    %rsp,%rdi
  402075:	e8 c6 1e 00 00       	callq  403f40 <TMlist_iter_hasNext>
  40207a:	48 85 c0             	test   %rax,%rax
  40207d:	75 e1                	jne    402060 <customer_getBill+0x20>
            (reservation_info_t*)TMLIST_ITER_NEXT(&it, reservationInfoListPtr);
        bill += reservationInfoPtr->price;
    }

    return bill;
}
  40207f:	48 83 c4 18          	add    $0x18,%rsp
  402083:	48 89 e8             	mov    %rbp,%rax
  402086:	5b                   	pop    %rbx
  402087:	5d                   	pop    %rbp
  402088:	c3                   	retq   
  402089:	0f 1f 80 00 00 00 00 	nopl   0x0(%rax)

0000000000402090 <manager_alloc>:
 * manager_alloc
 * =============================================================================
 */
manager_t*
manager_alloc ()
{
  402090:	53                   	push   %rbx
    manager_t* managerPtr;

    managerPtr = (manager_t*)malloc(sizeof(manager_t));
  402091:	bf 20 00 00 00       	mov    $0x20,%edi
  402096:	e8 e5 eb ff ff       	callq  400c80 <malloc@plt>
    assert(managerPtr != NULL);
  40209b:	48 85 c0             	test   %rax,%rax
manager_t*
manager_alloc ()
{
    manager_t* managerPtr;

    managerPtr = (manager_t*)malloc(sizeof(manager_t));
  40209e:	48 89 c3             	mov    %rax,%rbx
    assert(managerPtr != NULL);
  4020a1:	74 49                	je     4020ec <manager_alloc+0x5c>
 * =============================================================================
 */
static MAP_T*
tableAlloc ()
{
    return MAP_ALLOC(NULL, NULL);
  4020a3:	31 ff                	xor    %edi,%edi
  4020a5:	e8 d6 57 00 00       	callq  407880 <rbtree_alloc>
  4020aa:	31 ff                	xor    %edi,%edi
    manager_t* managerPtr;

    managerPtr = (manager_t*)malloc(sizeof(manager_t));
    assert(managerPtr != NULL);

    managerPtr->carTablePtr = tableAlloc();
  4020ac:	48 89 03             	mov    %rax,(%rbx)
 * =============================================================================
 */
static MAP_T*
tableAlloc ()
{
    return MAP_ALLOC(NULL, NULL);
  4020af:	e8 cc 57 00 00       	callq  407880 <rbtree_alloc>
  4020b4:	31 ff                	xor    %edi,%edi

    managerPtr = (manager_t*)malloc(sizeof(manager_t));
    assert(managerPtr != NULL);

    managerPtr->carTablePtr = tableAlloc();
    managerPtr->roomTablePtr = tableAlloc();
  4020b6:	48 89 43 08          	mov    %rax,0x8(%rbx)
 * =============================================================================
 */
static MAP_T*
tableAlloc ()
{
    return MAP_ALLOC(NULL, NULL);
  4020ba:	e8 c1 57 00 00       	callq  407880 <rbtree_alloc>
  4020bf:	31 ff                	xor    %edi,%edi
    managerPtr = (manager_t*)malloc(sizeof(manager_t));
    assert(managerPtr != NULL);

    managerPtr->carTablePtr = tableAlloc();
    managerPtr->roomTablePtr = tableAlloc();
    managerPtr->flightTablePtr = tableAlloc();
  4020c1:	48 89 43 10          	mov    %rax,0x10(%rbx)
 * =============================================================================
 */
static MAP_T*
tableAlloc ()
{
    return MAP_ALLOC(NULL, NULL);
  4020c5:	e8 b6 57 00 00       	callq  407880 <rbtree_alloc>

    managerPtr->carTablePtr = tableAlloc();
    managerPtr->roomTablePtr = tableAlloc();
    managerPtr->flightTablePtr = tableAlloc();
    managerPtr->customerTablePtr = tableAlloc();
    assert(managerPtr->carTablePtr != NULL);
  4020ca:	48 83 3b 00          	cmpq   $0x0,(%rbx)
    assert(managerPtr != NULL);

    managerPtr->carTablePtr = tableAlloc();
    managerPtr->roomTablePtr = tableAlloc();
    managerPtr->flightTablePtr = tableAlloc();
    managerPtr->customerTablePtr = tableAlloc();
  4020ce:	48 89 43 18          	mov    %rax,0x18(%rbx)
    assert(managerPtr->carTablePtr != NULL);
  4020d2:	74 7c                	je     402150 <manager_alloc+0xc0>
    assert(managerPtr->roomTablePtr != NULL);
  4020d4:	48 83 7b 08 00       	cmpq   $0x0,0x8(%rbx)
  4020d9:	74 5c                	je     402137 <manager_alloc+0xa7>
    assert(managerPtr->flightTablePtr != NULL);
  4020db:	48 83 7b 10 00       	cmpq   $0x0,0x10(%rbx)
  4020e0:	74 3c                	je     40211e <manager_alloc+0x8e>
    assert(managerPtr->customerTablePtr != NULL);
  4020e2:	48 85 c0             	test   %rax,%rax
  4020e5:	74 1e                	je     402105 <manager_alloc+0x75>

    return managerPtr;
}
  4020e7:	48 89 d8             	mov    %rbx,%rax
  4020ea:	5b                   	pop    %rbx
  4020eb:	c3                   	retq   
manager_alloc ()
{
    manager_t* managerPtr;

    managerPtr = (manager_t*)malloc(sizeof(manager_t));
    assert(managerPtr != NULL);
  4020ec:	b9 c2 8d 40 00       	mov    $0x408dc2,%ecx
  4020f1:	ba 7e 00 00 00       	mov    $0x7e,%edx
  4020f6:	be 32 8c 40 00       	mov    $0x408c32,%esi
  4020fb:	bf 3c 8c 40 00       	mov    $0x408c3c,%edi
  402100:	e8 4b eb ff ff       	callq  400c50 <__assert_fail@plt>
    managerPtr->flightTablePtr = tableAlloc();
    managerPtr->customerTablePtr = tableAlloc();
    assert(managerPtr->carTablePtr != NULL);
    assert(managerPtr->roomTablePtr != NULL);
    assert(managerPtr->flightTablePtr != NULL);
    assert(managerPtr->customerTablePtr != NULL);
  402105:	b9 c2 8d 40 00       	mov    $0x408dc2,%ecx
  40210a:	ba 87 00 00 00       	mov    $0x87,%edx
  40210f:	be 32 8c 40 00       	mov    $0x408c32,%esi
  402114:	bf 00 8d 40 00       	mov    $0x408d00,%edi
  402119:	e8 32 eb ff ff       	callq  400c50 <__assert_fail@plt>
    managerPtr->roomTablePtr = tableAlloc();
    managerPtr->flightTablePtr = tableAlloc();
    managerPtr->customerTablePtr = tableAlloc();
    assert(managerPtr->carTablePtr != NULL);
    assert(managerPtr->roomTablePtr != NULL);
    assert(managerPtr->flightTablePtr != NULL);
  40211e:	b9 c2 8d 40 00       	mov    $0x408dc2,%ecx
  402123:	ba 86 00 00 00       	mov    $0x86,%edx
  402128:	be 32 8c 40 00       	mov    $0x408c32,%esi
  40212d:	bf d0 8c 40 00       	mov    $0x408cd0,%edi
  402132:	e8 19 eb ff ff       	callq  400c50 <__assert_fail@plt>
    managerPtr->carTablePtr = tableAlloc();
    managerPtr->roomTablePtr = tableAlloc();
    managerPtr->flightTablePtr = tableAlloc();
    managerPtr->customerTablePtr = tableAlloc();
    assert(managerPtr->carTablePtr != NULL);
    assert(managerPtr->roomTablePtr != NULL);
  402137:	b9 c2 8d 40 00       	mov    $0x408dc2,%ecx
  40213c:	ba 85 00 00 00       	mov    $0x85,%edx
  402141:	be 32 8c 40 00       	mov    $0x408c32,%esi
  402146:	bf a8 8c 40 00       	mov    $0x408ca8,%edi
  40214b:	e8 00 eb ff ff       	callq  400c50 <__assert_fail@plt>

    managerPtr->carTablePtr = tableAlloc();
    managerPtr->roomTablePtr = tableAlloc();
    managerPtr->flightTablePtr = tableAlloc();
    managerPtr->customerTablePtr = tableAlloc();
    assert(managerPtr->carTablePtr != NULL);
  402150:	b9 c2 8d 40 00       	mov    $0x408dc2,%ecx
  402155:	ba 84 00 00 00       	mov    $0x84,%edx
  40215a:	be 32 8c 40 00       	mov    $0x408c32,%esi
  40215f:	bf 80 8c 40 00       	mov    $0x408c80,%edi
  402164:	e8 e7 ea ff ff       	callq  400c50 <__assert_fail@plt>
  402169:	0f 1f 80 00 00 00 00 	nopl   0x0(%rax)

0000000000402170 <manager_free>:
 * manager_free
 * =============================================================================
 */
void
manager_free (manager_t* managerPtr)
{
  402170:	53                   	push   %rbx
  402171:	48 89 fb             	mov    %rdi,%rbx
 * =============================================================================
 */
static void
tableFree (MAP_T* mapPtr)
{
    MAP_FREE(mapPtr);
  402174:	48 8b 3f             	mov    (%rdi),%rdi
  402177:	e8 64 57 00 00       	callq  4078e0 <rbtree_free>
  40217c:	48 8b 7b 08          	mov    0x8(%rbx),%rdi
  402180:	e8 5b 57 00 00       	callq  4078e0 <rbtree_free>
  402185:	48 8b 7b 10          	mov    0x10(%rbx),%rdi
  402189:	e8 52 57 00 00       	callq  4078e0 <rbtree_free>
  40218e:	48 8b 7b 18          	mov    0x18(%rbx),%rdi
{
    tableFree(managerPtr->carTablePtr);
    tableFree(managerPtr->roomTablePtr);
    tableFree(managerPtr->flightTablePtr);
    tableFree(managerPtr->customerTablePtr);
}
  402192:	5b                   	pop    %rbx
 * =============================================================================
 */
static void
tableFree (MAP_T* mapPtr)
{
    MAP_FREE(mapPtr);
  402193:	e9 48 57 00 00       	jmpq   4078e0 <rbtree_free>
  402198:	0f 1f 84 00 00 00 00 	nopl   0x0(%rax,%rax,1)
  40219f:	00 

00000000004021a0 <addReservation>:
 * -- Returns TRUE on success, else FALSE
 * =============================================================================
 */
bool_t
addReservation (TM_ARGDECL  MAP_T* tablePtr, long id, long num, long price)
{
  4021a0:	41 56                	push   %r14
  4021a2:	49 89 ce             	mov    %rcx,%r14
  4021a5:	41 55                	push   %r13
  4021a7:	49 89 d5             	mov    %rdx,%r13
  4021aa:	41 54                	push   %r12
  4021ac:	49 89 fc             	mov    %rdi,%r12
  4021af:	55                   	push   %rbp
  4021b0:	48 89 f5             	mov    %rsi,%rbp
  4021b3:	53                   	push   %rbx
    reservation_t* reservationPtr;

    reservationPtr = (reservation_t*)TMMAP_FIND(tablePtr, id);
  4021b4:	e8 57 5f 00 00       	callq  408110 <TMrbtree_get>
    if (reservationPtr == NULL) {
  4021b9:	48 85 c0             	test   %rax,%rax
bool_t
addReservation (TM_ARGDECL  MAP_T* tablePtr, long id, long num, long price)
{
    reservation_t* reservationPtr;

    reservationPtr = (reservation_t*)TMMAP_FIND(tablePtr, id);
  4021bc:	48 89 c3             	mov    %rax,%rbx
    if (reservationPtr == NULL) {
  4021bf:	74 47                	je     402208 <addReservation+0x68>
        reservationPtr = RESERVATION_ALLOC(id, num, price);
        assert(reservationPtr != NULL);
        TMMAP_INSERT(tablePtr, id, reservationPtr);
    } else {
        /* Update existing reservation */
        if (!RESERVATION_ADD_TO_TOTAL(reservationPtr, num)) {
  4021c1:	4c 89 ee             	mov    %r13,%rsi
  4021c4:	48 89 c7             	mov    %rax,%rdi
  4021c7:	e8 84 12 00 00       	callq  403450 <reservation_addToTotal>
  4021cc:	48 85 c0             	test   %rax,%rax
  4021cf:	74 4f                	je     402220 <addReservation+0x80>
            return FALSE;
        }
        if ((long)TM_SHARED_READ(reservationPtr->numTotal) == 0) {
  4021d1:	48 83 7b 18 00       	cmpq   $0x0,0x18(%rbx)
  4021d6:	75 58                	jne    402230 <addReservation+0x90>
            bool_t status = TMMAP_REMOVE(tablePtr, id);
  4021d8:	48 89 ee             	mov    %rbp,%rsi
  4021db:	4c 89 e7             	mov    %r12,%rdi
  4021de:	e8 1d 5b 00 00       	callq  407d00 <TMrbtree_delete>
            if (status == FALSE) {
  4021e3:	48 85 c0             	test   %rax,%rax
  4021e6:	0f 84 93 00 00 00    	je     40227f <addReservation+0xdf>
                TM_RESTART();
            }
            RESERVATION_FREE(reservationPtr);
  4021ec:	48 89 df             	mov    %rbx,%rdi
  4021ef:	e8 dc 17 00 00       	callq  4039d0 <reservation_free>
            RESERVATION_UPDATE_PRICE(reservationPtr, price);
        }
    }

    return TRUE;
}
  4021f4:	5b                   	pop    %rbx
  4021f5:	5d                   	pop    %rbp
  4021f6:	41 5c                	pop    %r12
  4021f8:	41 5d                	pop    %r13
        } else {
            RESERVATION_UPDATE_PRICE(reservationPtr, price);
        }
    }

    return TRUE;
  4021fa:	b8 01 00 00 00       	mov    $0x1,%eax
}
  4021ff:	41 5e                	pop    %r14
  402201:	c3                   	retq   
  402202:	66 0f 1f 44 00 00    	nopw   0x0(%rax,%rax,1)
    reservation_t* reservationPtr;

    reservationPtr = (reservation_t*)TMMAP_FIND(tablePtr, id);
    if (reservationPtr == NULL) {
        /* Create new reservation */
        if (num < 1 || price < 0) {
  402208:	4d 85 ed             	test   %r13,%r13
  40220b:	7e 13                	jle    402220 <addReservation+0x80>
  40220d:	4c 89 f0             	mov    %r14,%rax
  402210:	48 c1 e8 3f          	shr    $0x3f,%rax
  402214:	84 c0                	test   %al,%al
  402216:	74 38                	je     402250 <addReservation+0xb0>
  402218:	0f 1f 84 00 00 00 00 	nopl   0x0(%rax,%rax,1)
  40221f:	00 
            RESERVATION_UPDATE_PRICE(reservationPtr, price);
        }
    }

    return TRUE;
}
  402220:	5b                   	pop    %rbx
  402221:	5d                   	pop    %rbp
  402222:	41 5c                	pop    %r12
  402224:	41 5d                	pop    %r13

    reservationPtr = (reservation_t*)TMMAP_FIND(tablePtr, id);
    if (reservationPtr == NULL) {
        /* Create new reservation */
        if (num < 1 || price < 0) {
            return FALSE;
  402226:	31 c0                	xor    %eax,%eax
            RESERVATION_UPDATE_PRICE(reservationPtr, price);
        }
    }

    return TRUE;
}
  402228:	41 5e                	pop    %r14
  40222a:	c3                   	retq   
  40222b:	0f 1f 44 00 00       	nopl   0x0(%rax,%rax,1)
            if (status == FALSE) {
                TM_RESTART();
            }
            RESERVATION_FREE(reservationPtr);
        } else {
            RESERVATION_UPDATE_PRICE(reservationPtr, price);
  402230:	4c 89 f6             	mov    %r14,%rsi
  402233:	48 89 df             	mov    %rbx,%rdi
  402236:	e8 35 16 00 00       	callq  403870 <reservation_updatePrice>
        }
    }

    return TRUE;
}
  40223b:	5b                   	pop    %rbx
  40223c:	5d                   	pop    %rbp
  40223d:	41 5c                	pop    %r12
  40223f:	41 5d                	pop    %r13
        } else {
            RESERVATION_UPDATE_PRICE(reservationPtr, price);
        }
    }

    return TRUE;
  402241:	b8 01 00 00 00       	mov    $0x1,%eax
}
  402246:	41 5e                	pop    %r14
  402248:	c3                   	retq   
  402249:	0f 1f 80 00 00 00 00 	nopl   0x0(%rax)
    if (reservationPtr == NULL) {
        /* Create new reservation */
        if (num < 1 || price < 0) {
            return FALSE;
        }
        reservationPtr = RESERVATION_ALLOC(id, num, price);
  402250:	4c 89 f2             	mov    %r14,%rdx
  402253:	4c 89 ee             	mov    %r13,%rsi
  402256:	48 89 ef             	mov    %rbp,%rdi
  402259:	e8 f2 10 00 00       	callq  403350 <reservation_alloc>
        assert(reservationPtr != NULL);
  40225e:	48 85 c0             	test   %rax,%rax
  402261:	74 35                	je     402298 <addReservation+0xf8>
        TMMAP_INSERT(tablePtr, id, reservationPtr);
  402263:	48 89 ee             	mov    %rbp,%rsi
  402266:	4c 89 e7             	mov    %r12,%rdi
  402269:	48 89 c2             	mov    %rax,%rdx
  40226c:	e8 ff 57 00 00       	callq  407a70 <TMrbtree_insert>
            RESERVATION_UPDATE_PRICE(reservationPtr, price);
        }
    }

    return TRUE;
}
  402271:	5b                   	pop    %rbx
  402272:	5d                   	pop    %rbp
  402273:	41 5c                	pop    %r12
  402275:	41 5d                	pop    %r13
        } else {
            RESERVATION_UPDATE_PRICE(reservationPtr, price);
        }
    }

    return TRUE;
  402277:	b8 01 00 00 00       	mov    $0x1,%eax
}
  40227c:	41 5e                	pop    %r14
  40227e:	c3                   	retq   
            return FALSE;
        }
        if ((long)TM_SHARED_READ(reservationPtr->numTotal) == 0) {
            bool_t status = TMMAP_REMOVE(tablePtr, id);
            if (status == FALSE) {
                TM_RESTART();
  40227f:	b9 b3 8d 40 00       	mov    $0x408db3,%ecx
  402284:	ba cc 00 00 00       	mov    $0xcc,%edx
  402289:	be 32 8c 40 00       	mov    $0x408c32,%esi
  40228e:	bf f9 8d 40 00       	mov    $0x408df9,%edi
  402293:	e8 b8 e9 ff ff       	callq  400c50 <__assert_fail@plt>
        /* Create new reservation */
        if (num < 1 || price < 0) {
            return FALSE;
        }
        reservationPtr = RESERVATION_ALLOC(id, num, price);
        assert(reservationPtr != NULL);
  402298:	b9 b3 8d 40 00       	mov    $0x408db3,%ecx
  40229d:	ba c2 00 00 00       	mov    $0xc2,%edx
  4022a2:	be 32 8c 40 00       	mov    $0x408c32,%esi
  4022a7:	bf 56 8c 40 00       	mov    $0x408c56,%edi
  4022ac:	e8 9f e9 ff ff       	callq  400c50 <__assert_fail@plt>
  4022b1:	66 66 66 66 66 66 2e 	data32 data32 data32 data32 data32 nopw %cs:0x0(%rax,%rax,1)
  4022b8:	0f 1f 84 00 00 00 00 
  4022bf:	00 

00000000004022c0 <addReservation_seq>:
}


bool_t
addReservation_seq (MAP_T* tablePtr, long id, long num, long price)
{
  4022c0:	41 56                	push   %r14
  4022c2:	49 89 ce             	mov    %rcx,%r14
  4022c5:	41 55                	push   %r13
  4022c7:	49 89 d5             	mov    %rdx,%r13
  4022ca:	41 54                	push   %r12
  4022cc:	49 89 fc             	mov    %rdi,%r12
  4022cf:	55                   	push   %rbp
  4022d0:	48 89 f5             	mov    %rsi,%rbp
  4022d3:	53                   	push   %rbx
    reservation_t* reservationPtr;
    bool_t status;

    reservationPtr = (reservation_t*)MAP_FIND(tablePtr, id);
  4022d4:	e8 e7 5d 00 00       	callq  4080c0 <rbtree_get>
    if (reservationPtr == NULL) {
  4022d9:	48 85 c0             	test   %rax,%rax
addReservation_seq (MAP_T* tablePtr, long id, long num, long price)
{
    reservation_t* reservationPtr;
    bool_t status;

    reservationPtr = (reservation_t*)MAP_FIND(tablePtr, id);
  4022dc:	48 89 c3             	mov    %rax,%rbx
    if (reservationPtr == NULL) {
  4022df:	74 3f                	je     402320 <addReservation_seq+0x60>
        assert(reservationPtr != NULL);
        status = MAP_INSERT(tablePtr, id, reservationPtr);
        assert(status);
    } else {
        /* Update existing reservation */
        if (!reservation_addToTotal_seq(reservationPtr, num)) {
  4022e1:	4c 89 ee             	mov    %r13,%rsi
  4022e4:	48 89 c7             	mov    %rax,%rdi
  4022e7:	e8 04 12 00 00       	callq  4034f0 <reservation_addToTotal_seq>
  4022ec:	48 85 c0             	test   %rax,%rax
  4022ef:	74 3f                	je     402330 <addReservation_seq+0x70>
            return FALSE;
        }
        if (reservationPtr->numTotal == 0) {
  4022f1:	48 83 7b 18 00       	cmpq   $0x0,0x18(%rbx)
  4022f6:	75 48                	jne    402340 <addReservation_seq+0x80>
            status = MAP_REMOVE(tablePtr, id);
  4022f8:	48 89 ee             	mov    %rbp,%rsi
  4022fb:	4c 89 e7             	mov    %r12,%rdi
  4022fe:	e8 7d 58 00 00       	callq  407b80 <rbtree_delete>
            assert(status);
  402303:	48 85 c0             	test   %rax,%rax
  402306:	0f 84 83 00 00 00    	je     40238f <addReservation_seq+0xcf>
            reservation_updatePrice_seq(reservationPtr, price);
        }
    }

    return TRUE;
}
  40230c:	5b                   	pop    %rbx
  40230d:	5d                   	pop    %rbp
  40230e:	41 5c                	pop    %r12
  402310:	41 5d                	pop    %r13
        } else {
            reservation_updatePrice_seq(reservationPtr, price);
        }
    }

    return TRUE;
  402312:	b8 01 00 00 00       	mov    $0x1,%eax
}
  402317:	41 5e                	pop    %r14
  402319:	c3                   	retq   
  40231a:	66 0f 1f 44 00 00    	nopw   0x0(%rax,%rax,1)
    bool_t status;

    reservationPtr = (reservation_t*)MAP_FIND(tablePtr, id);
    if (reservationPtr == NULL) {
        /* Create new reservation */
        if (num < 1 || price < 0) {
  402320:	4d 85 ed             	test   %r13,%r13
  402323:	7e 0b                	jle    402330 <addReservation_seq+0x70>
  402325:	4c 89 f0             	mov    %r14,%rax
  402328:	48 c1 e8 3f          	shr    $0x3f,%rax
  40232c:	84 c0                	test   %al,%al
  40232e:	74 20                	je     402350 <addReservation_seq+0x90>
            reservation_updatePrice_seq(reservationPtr, price);
        }
    }

    return TRUE;
}
  402330:	5b                   	pop    %rbx
  402331:	5d                   	pop    %rbp
  402332:	41 5c                	pop    %r12
  402334:	41 5d                	pop    %r13

    reservationPtr = (reservation_t*)MAP_FIND(tablePtr, id);
    if (reservationPtr == NULL) {
        /* Create new reservation */
        if (num < 1 || price < 0) {
            return FALSE;
  402336:	31 c0                	xor    %eax,%eax
            reservation_updatePrice_seq(reservationPtr, price);
        }
    }

    return TRUE;
}
  402338:	41 5e                	pop    %r14
  40233a:	c3                   	retq   
  40233b:	0f 1f 44 00 00       	nopl   0x0(%rax,%rax,1)
        }
        if (reservationPtr->numTotal == 0) {
            status = MAP_REMOVE(tablePtr, id);
            assert(status);
        } else {
            reservation_updatePrice_seq(reservationPtr, price);
  402340:	4c 89 f6             	mov    %r14,%rsi
  402343:	48 89 df             	mov    %rbx,%rdi
  402346:	e8 c5 15 00 00       	callq  403910 <reservation_updatePrice_seq>
  40234b:	eb bf                	jmp    40230c <addReservation_seq+0x4c>
  40234d:	0f 1f 00             	nopl   (%rax)
    if (reservationPtr == NULL) {
        /* Create new reservation */
        if (num < 1 || price < 0) {
            return FALSE;
        }
        reservationPtr = reservation_alloc_seq(id, num, price);
  402350:	4c 89 f2             	mov    %r14,%rdx
  402353:	4c 89 ee             	mov    %r13,%rsi
  402356:	48 89 ef             	mov    %rbp,%rdi
  402359:	e8 72 10 00 00       	callq  4033d0 <reservation_alloc_seq>
        assert(reservationPtr != NULL);
  40235e:	48 85 c0             	test   %rax,%rax
  402361:	74 45                	je     4023a8 <addReservation_seq+0xe8>
        status = MAP_INSERT(tablePtr, id, reservationPtr);
  402363:	48 89 c2             	mov    %rax,%rdx
  402366:	48 89 ee             	mov    %rbp,%rsi
  402369:	4c 89 e7             	mov    %r12,%rdi
  40236c:	e8 ef 55 00 00       	callq  407960 <rbtree_insert>
        assert(status);
  402371:	48 85 c0             	test   %rax,%rax
  402374:	75 96                	jne    40230c <addReservation_seq+0x4c>
  402376:	b9 a0 8d 40 00       	mov    $0x408da0,%ecx
  40237b:	ba e7 00 00 00       	mov    $0xe7,%edx
  402380:	be 32 8c 40 00       	mov    $0x408c32,%esi
  402385:	bf 74 8c 40 00       	mov    $0x408c74,%edi
  40238a:	e8 c1 e8 ff ff       	callq  400c50 <__assert_fail@plt>
        if (!reservation_addToTotal_seq(reservationPtr, num)) {
            return FALSE;
        }
        if (reservationPtr->numTotal == 0) {
            status = MAP_REMOVE(tablePtr, id);
            assert(status);
  40238f:	b9 a0 8d 40 00       	mov    $0x408da0,%ecx
  402394:	ba ef 00 00 00       	mov    $0xef,%edx
  402399:	be 32 8c 40 00       	mov    $0x408c32,%esi
  40239e:	bf 74 8c 40 00       	mov    $0x408c74,%edi
  4023a3:	e8 a8 e8 ff ff       	callq  400c50 <__assert_fail@plt>
        /* Create new reservation */
        if (num < 1 || price < 0) {
            return FALSE;
        }
        reservationPtr = reservation_alloc_seq(id, num, price);
        assert(reservationPtr != NULL);
  4023a8:	b9 a0 8d 40 00       	mov    $0x408da0,%ecx
  4023ad:	ba e5 00 00 00       	mov    $0xe5,%edx
  4023b2:	be 32 8c 40 00       	mov    $0x408c32,%esi
  4023b7:	bf 56 8c 40 00       	mov    $0x408c56,%edi
  4023bc:	e8 8f e8 ff ff       	callq  400c50 <__assert_fail@plt>
  4023c1:	66 66 66 66 66 66 2e 	data32 data32 data32 data32 data32 nopw %cs:0x0(%rax,%rax,1)
  4023c8:	0f 1f 84 00 00 00 00 
  4023cf:	00 

00000000004023d0 <manager_addCar>:
 * =============================================================================
 */
bool_t
manager_addCar (TM_ARGDECL
                manager_t* managerPtr, long carId, long numCars, long price)
{
  4023d0:	41 56                	push   %r14
  4023d2:	49 89 ce             	mov    %rcx,%r14
  4023d5:	41 55                	push   %r13
  4023d7:	49 89 d5             	mov    %rdx,%r13
  4023da:	41 54                	push   %r12
  4023dc:	55                   	push   %rbp
  4023dd:	48 89 f5             	mov    %rsi,%rbp
  4023e0:	53                   	push   %rbx
    return addReservation(TM_ARG  managerPtr->carTablePtr, carId, numCars, price);
  4023e1:	4c 8b 27             	mov    (%rdi),%r12
bool_t
addReservation (TM_ARGDECL  MAP_T* tablePtr, long id, long num, long price)
{
    reservation_t* reservationPtr;

    reservationPtr = (reservation_t*)TMMAP_FIND(tablePtr, id);
  4023e4:	4c 89 e7             	mov    %r12,%rdi
  4023e7:	e8 24 5d 00 00       	callq  408110 <TMrbtree_get>
    if (reservationPtr == NULL) {
  4023ec:	48 85 c0             	test   %rax,%rax
bool_t
addReservation (TM_ARGDECL  MAP_T* tablePtr, long id, long num, long price)
{
    reservation_t* reservationPtr;

    reservationPtr = (reservation_t*)TMMAP_FIND(tablePtr, id);
  4023ef:	48 89 c3             	mov    %rax,%rbx
    if (reservationPtr == NULL) {
  4023f2:	74 44                	je     402438 <manager_addCar+0x68>
        reservationPtr = RESERVATION_ALLOC(id, num, price);
        assert(reservationPtr != NULL);
        TMMAP_INSERT(tablePtr, id, reservationPtr);
    } else {
        /* Update existing reservation */
        if (!RESERVATION_ADD_TO_TOTAL(reservationPtr, num)) {
  4023f4:	4c 89 ee             	mov    %r13,%rsi
  4023f7:	48 89 c7             	mov    %rax,%rdi
  4023fa:	e8 51 10 00 00       	callq  403450 <reservation_addToTotal>
  4023ff:	48 85 c0             	test   %rax,%rax
  402402:	74 4c                	je     402450 <manager_addCar+0x80>
            return FALSE;
        }
        if ((long)TM_SHARED_READ(reservationPtr->numTotal) == 0) {
  402404:	48 83 7b 18 00       	cmpq   $0x0,0x18(%rbx)
  402409:	75 55                	jne    402460 <manager_addCar+0x90>
            bool_t status = TMMAP_REMOVE(tablePtr, id);
  40240b:	48 89 ee             	mov    %rbp,%rsi
  40240e:	4c 89 e7             	mov    %r12,%rdi
  402411:	e8 ea 58 00 00       	callq  407d00 <TMrbtree_delete>
            if (status == FALSE) {
  402416:	48 85 c0             	test   %rax,%rax
  402419:	0f 84 90 00 00 00    	je     4024af <manager_addCar+0xdf>
                TM_RESTART();
            }
            RESERVATION_FREE(reservationPtr);
  40241f:	48 89 df             	mov    %rbx,%rdi
  402422:	e8 a9 15 00 00       	callq  4039d0 <reservation_free>
bool_t
manager_addCar (TM_ARGDECL
                manager_t* managerPtr, long carId, long numCars, long price)
{
    return addReservation(TM_ARG  managerPtr->carTablePtr, carId, numCars, price);
}
  402427:	5b                   	pop    %rbx
  402428:	5d                   	pop    %rbp
  402429:	41 5c                	pop    %r12
  40242b:	41 5d                	pop    %r13
        } else {
            RESERVATION_UPDATE_PRICE(reservationPtr, price);
        }
    }

    return TRUE;
  40242d:	b8 01 00 00 00       	mov    $0x1,%eax
bool_t
manager_addCar (TM_ARGDECL
                manager_t* managerPtr, long carId, long numCars, long price)
{
    return addReservation(TM_ARG  managerPtr->carTablePtr, carId, numCars, price);
}
  402432:	41 5e                	pop    %r14
  402434:	c3                   	retq   
  402435:	0f 1f 00             	nopl   (%rax)
    reservation_t* reservationPtr;

    reservationPtr = (reservation_t*)TMMAP_FIND(tablePtr, id);
    if (reservationPtr == NULL) {
        /* Create new reservation */
        if (num < 1 || price < 0) {
  402438:	4d 85 ed             	test   %r13,%r13
  40243b:	7e 13                	jle    402450 <manager_addCar+0x80>
  40243d:	4c 89 f0             	mov    %r14,%rax
  402440:	48 c1 e8 3f          	shr    $0x3f,%rax
  402444:	84 c0                	test   %al,%al
  402446:	74 38                	je     402480 <manager_addCar+0xb0>
  402448:	0f 1f 84 00 00 00 00 	nopl   0x0(%rax,%rax,1)
  40244f:	00 
bool_t
manager_addCar (TM_ARGDECL
                manager_t* managerPtr, long carId, long numCars, long price)
{
    return addReservation(TM_ARG  managerPtr->carTablePtr, carId, numCars, price);
}
  402450:	5b                   	pop    %rbx
  402451:	5d                   	pop    %rbp
  402452:	41 5c                	pop    %r12
  402454:	41 5d                	pop    %r13

    reservationPtr = (reservation_t*)TMMAP_FIND(tablePtr, id);
    if (reservationPtr == NULL) {
        /* Create new reservation */
        if (num < 1 || price < 0) {
            return FALSE;
  402456:	31 c0                	xor    %eax,%eax
bool_t
manager_addCar (TM_ARGDECL
                manager_t* managerPtr, long carId, long numCars, long price)
{
    return addReservation(TM_ARG  managerPtr->carTablePtr, carId, numCars, price);
}
  402458:	41 5e                	pop    %r14
  40245a:	c3                   	retq   
  40245b:	0f 1f 44 00 00       	nopl   0x0(%rax,%rax,1)
            if (status == FALSE) {
                TM_RESTART();
            }
            RESERVATION_FREE(reservationPtr);
        } else {
            RESERVATION_UPDATE_PRICE(reservationPtr, price);
  402460:	4c 89 f6             	mov    %r14,%rsi
  402463:	48 89 df             	mov    %rbx,%rdi
  402466:	e8 05 14 00 00       	callq  403870 <reservation_updatePrice>
bool_t
manager_addCar (TM_ARGDECL
                manager_t* managerPtr, long carId, long numCars, long price)
{
    return addReservation(TM_ARG  managerPtr->carTablePtr, carId, numCars, price);
}
  40246b:	5b                   	pop    %rbx
  40246c:	5d                   	pop    %rbp
  40246d:	41 5c                	pop    %r12
  40246f:	41 5d                	pop    %r13
        } else {
            RESERVATION_UPDATE_PRICE(reservationPtr, price);
        }
    }

    return TRUE;
  402471:	b8 01 00 00 00       	mov    $0x1,%eax
bool_t
manager_addCar (TM_ARGDECL
                manager_t* managerPtr, long carId, long numCars, long price)
{
    return addReservation(TM_ARG  managerPtr->carTablePtr, carId, numCars, price);
}
  402476:	41 5e                	pop    %r14
  402478:	c3                   	retq   
  402479:	0f 1f 80 00 00 00 00 	nopl   0x0(%rax)
    if (reservationPtr == NULL) {
        /* Create new reservation */
        if (num < 1 || price < 0) {
            return FALSE;
        }
        reservationPtr = RESERVATION_ALLOC(id, num, price);
  402480:	4c 89 f2             	mov    %r14,%rdx
  402483:	4c 89 ee             	mov    %r13,%rsi
  402486:	48 89 ef             	mov    %rbp,%rdi
  402489:	e8 c2 0e 00 00       	callq  403350 <reservation_alloc>
        assert(reservationPtr != NULL);
  40248e:	48 85 c0             	test   %rax,%rax
  402491:	74 35                	je     4024c8 <manager_addCar+0xf8>
        TMMAP_INSERT(tablePtr, id, reservationPtr);
  402493:	48 89 ee             	mov    %rbp,%rsi
  402496:	4c 89 e7             	mov    %r12,%rdi
  402499:	48 89 c2             	mov    %rax,%rdx
  40249c:	e8 cf 55 00 00       	callq  407a70 <TMrbtree_insert>
bool_t
manager_addCar (TM_ARGDECL
                manager_t* managerPtr, long carId, long numCars, long price)
{
    return addReservation(TM_ARG  managerPtr->carTablePtr, carId, numCars, price);
}
  4024a1:	5b                   	pop    %rbx
  4024a2:	5d                   	pop    %rbp
  4024a3:	41 5c                	pop    %r12
  4024a5:	41 5d                	pop    %r13
        } else {
            RESERVATION_UPDATE_PRICE(reservationPtr, price);
        }
    }

    return TRUE;
  4024a7:	b8 01 00 00 00       	mov    $0x1,%eax
bool_t
manager_addCar (TM_ARGDECL
                manager_t* managerPtr, long carId, long numCars, long price)
{
    return addReservation(TM_ARG  managerPtr->carTablePtr, carId, numCars, price);
}
  4024ac:	41 5e                	pop    %r14
  4024ae:	c3                   	retq   
            return FALSE;
        }
        if ((long)TM_SHARED_READ(reservationPtr->numTotal) == 0) {
            bool_t status = TMMAP_REMOVE(tablePtr, id);
            if (status == FALSE) {
                TM_RESTART();
  4024af:	b9 b3 8d 40 00       	mov    $0x408db3,%ecx
  4024b4:	ba cc 00 00 00       	mov    $0xcc,%edx
  4024b9:	be 32 8c 40 00       	mov    $0x408c32,%esi
  4024be:	bf f9 8d 40 00       	mov    $0x408df9,%edi
  4024c3:	e8 88 e7 ff ff       	callq  400c50 <__assert_fail@plt>
        /* Create new reservation */
        if (num < 1 || price < 0) {
            return FALSE;
        }
        reservationPtr = RESERVATION_ALLOC(id, num, price);
        assert(reservationPtr != NULL);
  4024c8:	b9 b3 8d 40 00       	mov    $0x408db3,%ecx
  4024cd:	ba c2 00 00 00       	mov    $0xc2,%edx
  4024d2:	be 32 8c 40 00       	mov    $0x408c32,%esi
  4024d7:	bf 56 8c 40 00       	mov    $0x408c56,%edi
  4024dc:	e8 6f e7 ff ff       	callq  400c50 <__assert_fail@plt>
  4024e1:	66 66 66 66 66 66 2e 	data32 data32 data32 data32 data32 nopw %cs:0x0(%rax,%rax,1)
  4024e8:	0f 1f 84 00 00 00 00 
  4024ef:	00 

00000000004024f0 <manager_addCar_seq>:
}


bool_t
manager_addCar_seq (manager_t* managerPtr, long carId, long numCars, long price)
{
  4024f0:	41 56                	push   %r14
  4024f2:	49 89 ce             	mov    %rcx,%r14
  4024f5:	41 55                	push   %r13
  4024f7:	49 89 d5             	mov    %rdx,%r13
  4024fa:	41 54                	push   %r12
  4024fc:	55                   	push   %rbp
  4024fd:	48 89 f5             	mov    %rsi,%rbp
  402500:	53                   	push   %rbx
    return addReservation_seq(managerPtr->carTablePtr, carId, numCars, price);
  402501:	4c 8b 27             	mov    (%rdi),%r12
addReservation_seq (MAP_T* tablePtr, long id, long num, long price)
{
    reservation_t* reservationPtr;
    bool_t status;

    reservationPtr = (reservation_t*)MAP_FIND(tablePtr, id);
  402504:	4c 89 e7             	mov    %r12,%rdi
  402507:	e8 b4 5b 00 00       	callq  4080c0 <rbtree_get>
    if (reservationPtr == NULL) {
  40250c:	48 85 c0             	test   %rax,%rax
addReservation_seq (MAP_T* tablePtr, long id, long num, long price)
{
    reservation_t* reservationPtr;
    bool_t status;

    reservationPtr = (reservation_t*)MAP_FIND(tablePtr, id);
  40250f:	48 89 c3             	mov    %rax,%rbx
    if (reservationPtr == NULL) {
  402512:	74 3c                	je     402550 <manager_addCar_seq+0x60>
        assert(reservationPtr != NULL);
        status = MAP_INSERT(tablePtr, id, reservationPtr);
        assert(status);
    } else {
        /* Update existing reservation */
        if (!reservation_addToTotal_seq(reservationPtr, num)) {
  402514:	4c 89 ee             	mov    %r13,%rsi
  402517:	48 89 c7             	mov    %rax,%rdi
  40251a:	e8 d1 0f 00 00       	callq  4034f0 <reservation_addToTotal_seq>
  40251f:	48 85 c0             	test   %rax,%rax
  402522:	74 3c                	je     402560 <manager_addCar_seq+0x70>
            return FALSE;
        }
        if (reservationPtr->numTotal == 0) {
  402524:	48 83 7b 18 00       	cmpq   $0x0,0x18(%rbx)
  402529:	75 45                	jne    402570 <manager_addCar_seq+0x80>
            status = MAP_REMOVE(tablePtr, id);
  40252b:	48 89 ee             	mov    %rbp,%rsi
  40252e:	4c 89 e7             	mov    %r12,%rdi
  402531:	e8 4a 56 00 00       	callq  407b80 <rbtree_delete>
            assert(status);
  402536:	48 85 c0             	test   %rax,%rax
  402539:	0f 84 80 00 00 00    	je     4025bf <manager_addCar_seq+0xcf>

bool_t
manager_addCar_seq (manager_t* managerPtr, long carId, long numCars, long price)
{
    return addReservation_seq(managerPtr->carTablePtr, carId, numCars, price);
}
  40253f:	5b                   	pop    %rbx
  402540:	5d                   	pop    %rbp
  402541:	41 5c                	pop    %r12
  402543:	41 5d                	pop    %r13
        } else {
            reservation_updatePrice_seq(reservationPtr, price);
        }
    }

    return TRUE;
  402545:	b8 01 00 00 00       	mov    $0x1,%eax

bool_t
manager_addCar_seq (manager_t* managerPtr, long carId, long numCars, long price)
{
    return addReservation_seq(managerPtr->carTablePtr, carId, numCars, price);
}
  40254a:	41 5e                	pop    %r14
  40254c:	c3                   	retq   
  40254d:	0f 1f 00             	nopl   (%rax)
    bool_t status;

    reservationPtr = (reservation_t*)MAP_FIND(tablePtr, id);
    if (reservationPtr == NULL) {
        /* Create new reservation */
        if (num < 1 || price < 0) {
  402550:	4d 85 ed             	test   %r13,%r13
  402553:	7e 0b                	jle    402560 <manager_addCar_seq+0x70>
  402555:	4c 89 f0             	mov    %r14,%rax
  402558:	48 c1 e8 3f          	shr    $0x3f,%rax
  40255c:	84 c0                	test   %al,%al
  40255e:	74 20                	je     402580 <manager_addCar_seq+0x90>

bool_t
manager_addCar_seq (manager_t* managerPtr, long carId, long numCars, long price)
{
    return addReservation_seq(managerPtr->carTablePtr, carId, numCars, price);
}
  402560:	5b                   	pop    %rbx
  402561:	5d                   	pop    %rbp
  402562:	41 5c                	pop    %r12
  402564:	41 5d                	pop    %r13

    reservationPtr = (reservation_t*)MAP_FIND(tablePtr, id);
    if (reservationPtr == NULL) {
        /* Create new reservation */
        if (num < 1 || price < 0) {
            return FALSE;
  402566:	31 c0                	xor    %eax,%eax

bool_t
manager_addCar_seq (manager_t* managerPtr, long carId, long numCars, long price)
{
    return addReservation_seq(managerPtr->carTablePtr, carId, numCars, price);
}
  402568:	41 5e                	pop    %r14
  40256a:	c3                   	retq   
  40256b:	0f 1f 44 00 00       	nopl   0x0(%rax,%rax,1)
        }
        if (reservationPtr->numTotal == 0) {
            status = MAP_REMOVE(tablePtr, id);
            assert(status);
        } else {
            reservation_updatePrice_seq(reservationPtr, price);
  402570:	4c 89 f6             	mov    %r14,%rsi
  402573:	48 89 df             	mov    %rbx,%rdi
  402576:	e8 95 13 00 00       	callq  403910 <reservation_updatePrice_seq>
  40257b:	eb c2                	jmp    40253f <manager_addCar_seq+0x4f>
  40257d:	0f 1f 00             	nopl   (%rax)
    if (reservationPtr == NULL) {
        /* Create new reservation */
        if (num < 1 || price < 0) {
            return FALSE;
        }
        reservationPtr = reservation_alloc_seq(id, num, price);
  402580:	4c 89 f2             	mov    %r14,%rdx
  402583:	4c 89 ee             	mov    %r13,%rsi
  402586:	48 89 ef             	mov    %rbp,%rdi
  402589:	e8 42 0e 00 00       	callq  4033d0 <reservation_alloc_seq>
        assert(reservationPtr != NULL);
  40258e:	48 85 c0             	test   %rax,%rax
  402591:	74 45                	je     4025d8 <manager_addCar_seq+0xe8>
        status = MAP_INSERT(tablePtr, id, reservationPtr);
  402593:	48 89 c2             	mov    %rax,%rdx
  402596:	48 89 ee             	mov    %rbp,%rsi
  402599:	4c 89 e7             	mov    %r12,%rdi
  40259c:	e8 bf 53 00 00       	callq  407960 <rbtree_insert>
        assert(status);
  4025a1:	48 85 c0             	test   %rax,%rax
  4025a4:	75 99                	jne    40253f <manager_addCar_seq+0x4f>
  4025a6:	b9 a0 8d 40 00       	mov    $0x408da0,%ecx
  4025ab:	ba e7 00 00 00       	mov    $0xe7,%edx
  4025b0:	be 32 8c 40 00       	mov    $0x408c32,%esi
  4025b5:	bf 74 8c 40 00       	mov    $0x408c74,%edi
  4025ba:	e8 91 e6 ff ff       	callq  400c50 <__assert_fail@plt>
        if (!reservation_addToTotal_seq(reservationPtr, num)) {
            return FALSE;
        }
        if (reservationPtr->numTotal == 0) {
            status = MAP_REMOVE(tablePtr, id);
            assert(status);
  4025bf:	b9 a0 8d 40 00       	mov    $0x408da0,%ecx
  4025c4:	ba ef 00 00 00       	mov    $0xef,%edx
  4025c9:	be 32 8c 40 00       	mov    $0x408c32,%esi
  4025ce:	bf 74 8c 40 00       	mov    $0x408c74,%edi
  4025d3:	e8 78 e6 ff ff       	callq  400c50 <__assert_fail@plt>
        /* Create new reservation */
        if (num < 1 || price < 0) {
            return FALSE;
        }
        reservationPtr = reservation_alloc_seq(id, num, price);
        assert(reservationPtr != NULL);
  4025d8:	b9 a0 8d 40 00       	mov    $0x408da0,%ecx
  4025dd:	ba e5 00 00 00       	mov    $0xe5,%edx
  4025e2:	be 32 8c 40 00       	mov    $0x408c32,%esi
  4025e7:	bf 56 8c 40 00       	mov    $0x408c56,%edi
  4025ec:	e8 5f e6 ff ff       	callq  400c50 <__assert_fail@plt>
  4025f1:	66 66 66 66 66 66 2e 	data32 data32 data32 data32 data32 nopw %cs:0x0(%rax,%rax,1)
  4025f8:	0f 1f 84 00 00 00 00 
  4025ff:	00 

0000000000402600 <manager_deleteCar>:
 * -- Returns TRUE on success, else FALSE
 * =============================================================================
 */
bool_t
manager_deleteCar (TM_ARGDECL  manager_t* managerPtr, long carId, long numCar)
{
  402600:	41 55                	push   %r13
  402602:	49 89 d5             	mov    %rdx,%r13
  402605:	41 54                	push   %r12
  402607:	49 89 f4             	mov    %rsi,%r12
  40260a:	55                   	push   %rbp
  40260b:	53                   	push   %rbx
  40260c:	48 83 ec 08          	sub    $0x8,%rsp
    /* -1 keeps old price */
    return addReservation(TM_ARG  managerPtr->carTablePtr, carId, -numCar, -1);
  402610:	48 8b 2f             	mov    (%rdi),%rbp
bool_t
addReservation (TM_ARGDECL  MAP_T* tablePtr, long id, long num, long price)
{
    reservation_t* reservationPtr;

    reservationPtr = (reservation_t*)TMMAP_FIND(tablePtr, id);
  402613:	48 89 ef             	mov    %rbp,%rdi
  402616:	e8 f5 5a 00 00       	callq  408110 <TMrbtree_get>
    if (reservationPtr == NULL) {
  40261b:	48 85 c0             	test   %rax,%rax
bool_t
addReservation (TM_ARGDECL  MAP_T* tablePtr, long id, long num, long price)
{
    reservation_t* reservationPtr;

    reservationPtr = (reservation_t*)TMMAP_FIND(tablePtr, id);
  40261e:	48 89 c3             	mov    %rax,%rbx
    if (reservationPtr == NULL) {
  402621:	74 45                	je     402668 <manager_deleteCar+0x68>
 */
bool_t
manager_deleteCar (TM_ARGDECL  manager_t* managerPtr, long carId, long numCar)
{
    /* -1 keeps old price */
    return addReservation(TM_ARG  managerPtr->carTablePtr, carId, -numCar, -1);
  402623:	4c 89 ee             	mov    %r13,%rsi
        reservationPtr = RESERVATION_ALLOC(id, num, price);
        assert(reservationPtr != NULL);
        TMMAP_INSERT(tablePtr, id, reservationPtr);
    } else {
        /* Update existing reservation */
        if (!RESERVATION_ADD_TO_TOTAL(reservationPtr, num)) {
  402626:	48 89 c7             	mov    %rax,%rdi
 */
bool_t
manager_deleteCar (TM_ARGDECL  manager_t* managerPtr, long carId, long numCar)
{
    /* -1 keeps old price */
    return addReservation(TM_ARG  managerPtr->carTablePtr, carId, -numCar, -1);
  402629:	48 f7 de             	neg    %rsi
        reservationPtr = RESERVATION_ALLOC(id, num, price);
        assert(reservationPtr != NULL);
        TMMAP_INSERT(tablePtr, id, reservationPtr);
    } else {
        /* Update existing reservation */
        if (!RESERVATION_ADD_TO_TOTAL(reservationPtr, num)) {
  40262c:	e8 1f 0e 00 00       	callq  403450 <reservation_addToTotal>
  402631:	48 85 c0             	test   %rax,%rax
  402634:	74 32                	je     402668 <manager_deleteCar+0x68>
            return FALSE;
        }
        if ((long)TM_SHARED_READ(reservationPtr->numTotal) == 0) {
  402636:	48 83 7b 18 00       	cmpq   $0x0,0x18(%rbx)
  40263b:	75 3b                	jne    402678 <manager_deleteCar+0x78>
            bool_t status = TMMAP_REMOVE(tablePtr, id);
  40263d:	4c 89 e6             	mov    %r12,%rsi
  402640:	48 89 ef             	mov    %rbp,%rdi
  402643:	e8 b8 56 00 00       	callq  407d00 <TMrbtree_delete>
            if (status == FALSE) {
  402648:	48 85 c0             	test   %rax,%rax
  40264b:	74 4a                	je     402697 <manager_deleteCar+0x97>
                TM_RESTART();
            }
            RESERVATION_FREE(reservationPtr);
  40264d:	48 89 df             	mov    %rbx,%rdi
  402650:	e8 7b 13 00 00       	callq  4039d0 <reservation_free>
bool_t
manager_deleteCar (TM_ARGDECL  manager_t* managerPtr, long carId, long numCar)
{
    /* -1 keeps old price */
    return addReservation(TM_ARG  managerPtr->carTablePtr, carId, -numCar, -1);
}
  402655:	48 83 c4 08          	add    $0x8,%rsp
        } else {
            RESERVATION_UPDATE_PRICE(reservationPtr, price);
        }
    }

    return TRUE;
  402659:	b8 01 00 00 00       	mov    $0x1,%eax
bool_t
manager_deleteCar (TM_ARGDECL  manager_t* managerPtr, long carId, long numCar)
{
    /* -1 keeps old price */
    return addReservation(TM_ARG  managerPtr->carTablePtr, carId, -numCar, -1);
}
  40265e:	5b                   	pop    %rbx
  40265f:	5d                   	pop    %rbp
  402660:	41 5c                	pop    %r12
  402662:	41 5d                	pop    %r13
  402664:	c3                   	retq   
  402665:	0f 1f 00             	nopl   (%rax)
  402668:	48 83 c4 08          	add    $0x8,%rsp

    reservationPtr = (reservation_t*)TMMAP_FIND(tablePtr, id);
    if (reservationPtr == NULL) {
        /* Create new reservation */
        if (num < 1 || price < 0) {
            return FALSE;
  40266c:	31 c0                	xor    %eax,%eax
bool_t
manager_deleteCar (TM_ARGDECL  manager_t* managerPtr, long carId, long numCar)
{
    /* -1 keeps old price */
    return addReservation(TM_ARG  managerPtr->carTablePtr, carId, -numCar, -1);
}
  40266e:	5b                   	pop    %rbx
  40266f:	5d                   	pop    %rbp
  402670:	41 5c                	pop    %r12
  402672:	41 5d                	pop    %r13
  402674:	c3                   	retq   
  402675:	0f 1f 00             	nopl   (%rax)
            if (status == FALSE) {
                TM_RESTART();
            }
            RESERVATION_FREE(reservationPtr);
        } else {
            RESERVATION_UPDATE_PRICE(reservationPtr, price);
  402678:	48 89 df             	mov    %rbx,%rdi
  40267b:	48 c7 c6 ff ff ff ff 	mov    $0xffffffffffffffff,%rsi
  402682:	e8 e9 11 00 00       	callq  403870 <reservation_updatePrice>
bool_t
manager_deleteCar (TM_ARGDECL  manager_t* managerPtr, long carId, long numCar)
{
    /* -1 keeps old price */
    return addReservation(TM_ARG  managerPtr->carTablePtr, carId, -numCar, -1);
}
  402687:	48 83 c4 08          	add    $0x8,%rsp
        } else {
            RESERVATION_UPDATE_PRICE(reservationPtr, price);
        }
    }

    return TRUE;
  40268b:	b8 01 00 00 00       	mov    $0x1,%eax
bool_t
manager_deleteCar (TM_ARGDECL  manager_t* managerPtr, long carId, long numCar)
{
    /* -1 keeps old price */
    return addReservation(TM_ARG  managerPtr->carTablePtr, carId, -numCar, -1);
}
  402690:	5b                   	pop    %rbx
  402691:	5d                   	pop    %rbp
  402692:	41 5c                	pop    %r12
  402694:	41 5d                	pop    %r13
  402696:	c3                   	retq   
            return FALSE;
        }
        if ((long)TM_SHARED_READ(reservationPtr->numTotal) == 0) {
            bool_t status = TMMAP_REMOVE(tablePtr, id);
            if (status == FALSE) {
                TM_RESTART();
  402697:	b9 b3 8d 40 00       	mov    $0x408db3,%ecx
  40269c:	ba cc 00 00 00       	mov    $0xcc,%edx
  4026a1:	be 32 8c 40 00       	mov    $0x408c32,%esi
  4026a6:	bf f9 8d 40 00       	mov    $0x408df9,%edi
  4026ab:	e8 a0 e5 ff ff       	callq  400c50 <__assert_fail@plt>

00000000004026b0 <manager_addRoom>:
 * =============================================================================
 */
bool_t
manager_addRoom (TM_ARGDECL
                 manager_t* managerPtr, long roomId, long numRoom, long price)
{
  4026b0:	41 56                	push   %r14
  4026b2:	49 89 ce             	mov    %rcx,%r14
  4026b5:	41 55                	push   %r13
  4026b7:	49 89 d5             	mov    %rdx,%r13
  4026ba:	41 54                	push   %r12
  4026bc:	55                   	push   %rbp
  4026bd:	48 89 f5             	mov    %rsi,%rbp
  4026c0:	53                   	push   %rbx
    return addReservation(TM_ARG  managerPtr->roomTablePtr, roomId, numRoom, price);
  4026c1:	4c 8b 67 08          	mov    0x8(%rdi),%r12
bool_t
addReservation (TM_ARGDECL  MAP_T* tablePtr, long id, long num, long price)
{
    reservation_t* reservationPtr;

    reservationPtr = (reservation_t*)TMMAP_FIND(tablePtr, id);
  4026c5:	4c 89 e7             	mov    %r12,%rdi
  4026c8:	e8 43 5a 00 00       	callq  408110 <TMrbtree_get>
    if (reservationPtr == NULL) {
  4026cd:	48 85 c0             	test   %rax,%rax
bool_t
addReservation (TM_ARGDECL  MAP_T* tablePtr, long id, long num, long price)
{
    reservation_t* reservationPtr;

    reservationPtr = (reservation_t*)TMMAP_FIND(tablePtr, id);
  4026d0:	48 89 c3             	mov    %rax,%rbx
    if (reservationPtr == NULL) {
  4026d3:	74 4b                	je     402720 <manager_addRoom+0x70>
        reservationPtr = RESERVATION_ALLOC(id, num, price);
        assert(reservationPtr != NULL);
        TMMAP_INSERT(tablePtr, id, reservationPtr);
    } else {
        /* Update existing reservation */
        if (!RESERVATION_ADD_TO_TOTAL(reservationPtr, num)) {
  4026d5:	4c 89 ee             	mov    %r13,%rsi
  4026d8:	48 89 c7             	mov    %rax,%rdi
  4026db:	e8 70 0d 00 00       	callq  403450 <reservation_addToTotal>
  4026e0:	48 85 c0             	test   %rax,%rax
  4026e3:	74 4b                	je     402730 <manager_addRoom+0x80>
            return FALSE;
        }
        if ((long)TM_SHARED_READ(reservationPtr->numTotal) == 0) {
  4026e5:	48 83 7b 18 00       	cmpq   $0x0,0x18(%rbx)
  4026ea:	75 54                	jne    402740 <manager_addRoom+0x90>
            bool_t status = TMMAP_REMOVE(tablePtr, id);
  4026ec:	48 89 ee             	mov    %rbp,%rsi
  4026ef:	4c 89 e7             	mov    %r12,%rdi
  4026f2:	e8 09 56 00 00       	callq  407d00 <TMrbtree_delete>
            if (status == FALSE) {
  4026f7:	48 85 c0             	test   %rax,%rax
  4026fa:	0f 84 8f 00 00 00    	je     40278f <manager_addRoom+0xdf>
                TM_RESTART();
            }
            RESERVATION_FREE(reservationPtr);
  402700:	48 89 df             	mov    %rbx,%rdi
  402703:	e8 c8 12 00 00       	callq  4039d0 <reservation_free>
bool_t
manager_addRoom (TM_ARGDECL
                 manager_t* managerPtr, long roomId, long numRoom, long price)
{
    return addReservation(TM_ARG  managerPtr->roomTablePtr, roomId, numRoom, price);
}
  402708:	5b                   	pop    %rbx
  402709:	5d                   	pop    %rbp
  40270a:	41 5c                	pop    %r12
  40270c:	41 5d                	pop    %r13
        } else {
            RESERVATION_UPDATE_PRICE(reservationPtr, price);
        }
    }

    return TRUE;
  40270e:	b8 01 00 00 00       	mov    $0x1,%eax
bool_t
manager_addRoom (TM_ARGDECL
                 manager_t* managerPtr, long roomId, long numRoom, long price)
{
    return addReservation(TM_ARG  managerPtr->roomTablePtr, roomId, numRoom, price);
}
  402713:	41 5e                	pop    %r14
  402715:	c3                   	retq   
  402716:	66 2e 0f 1f 84 00 00 	nopw   %cs:0x0(%rax,%rax,1)
  40271d:	00 00 00 
    reservation_t* reservationPtr;

    reservationPtr = (reservation_t*)TMMAP_FIND(tablePtr, id);
    if (reservationPtr == NULL) {
        /* Create new reservation */
        if (num < 1 || price < 0) {
  402720:	4d 85 ed             	test   %r13,%r13
  402723:	7e 0b                	jle    402730 <manager_addRoom+0x80>
  402725:	4c 89 f0             	mov    %r14,%rax
  402728:	48 c1 e8 3f          	shr    $0x3f,%rax
  40272c:	84 c0                	test   %al,%al
  40272e:	74 30                	je     402760 <manager_addRoom+0xb0>
bool_t
manager_addRoom (TM_ARGDECL
                 manager_t* managerPtr, long roomId, long numRoom, long price)
{
    return addReservation(TM_ARG  managerPtr->roomTablePtr, roomId, numRoom, price);
}
  402730:	5b                   	pop    %rbx
  402731:	5d                   	pop    %rbp
  402732:	41 5c                	pop    %r12
  402734:	41 5d                	pop    %r13

    reservationPtr = (reservation_t*)TMMAP_FIND(tablePtr, id);
    if (reservationPtr == NULL) {
        /* Create new reservation */
        if (num < 1 || price < 0) {
            return FALSE;
  402736:	31 c0                	xor    %eax,%eax
bool_t
manager_addRoom (TM_ARGDECL
                 manager_t* managerPtr, long roomId, long numRoom, long price)
{
    return addReservation(TM_ARG  managerPtr->roomTablePtr, roomId, numRoom, price);
}
  402738:	41 5e                	pop    %r14
  40273a:	c3                   	retq   
  40273b:	0f 1f 44 00 00       	nopl   0x0(%rax,%rax,1)
            if (status == FALSE) {
                TM_RESTART();
            }
            RESERVATION_FREE(reservationPtr);
        } else {
            RESERVATION_UPDATE_PRICE(reservationPtr, price);
  402740:	4c 89 f6             	mov    %r14,%rsi
  402743:	48 89 df             	mov    %rbx,%rdi
  402746:	e8 25 11 00 00       	callq  403870 <reservation_updatePrice>
bool_t
manager_addRoom (TM_ARGDECL
                 manager_t* managerPtr, long roomId, long numRoom, long price)
{
    return addReservation(TM_ARG  managerPtr->roomTablePtr, roomId, numRoom, price);
}
  40274b:	5b                   	pop    %rbx
  40274c:	5d                   	pop    %rbp
  40274d:	41 5c                	pop    %r12
  40274f:	41 5d                	pop    %r13
        } else {
            RESERVATION_UPDATE_PRICE(reservationPtr, price);
        }
    }

    return TRUE;
  402751:	b8 01 00 00 00       	mov    $0x1,%eax
bool_t
manager_addRoom (TM_ARGDECL
                 manager_t* managerPtr, long roomId, long numRoom, long price)
{
    return addReservation(TM_ARG  managerPtr->roomTablePtr, roomId, numRoom, price);
}
  402756:	41 5e                	pop    %r14
  402758:	c3                   	retq   
  402759:	0f 1f 80 00 00 00 00 	nopl   0x0(%rax)
    if (reservationPtr == NULL) {
        /* Create new reservation */
        if (num < 1 || price < 0) {
            return FALSE;
        }
        reservationPtr = RESERVATION_ALLOC(id, num, price);
  402760:	4c 89 f2             	mov    %r14,%rdx
  402763:	4c 89 ee             	mov    %r13,%rsi
  402766:	48 89 ef             	mov    %rbp,%rdi
  402769:	e8 e2 0b 00 00       	callq  403350 <reservation_alloc>
        assert(reservationPtr != NULL);
  40276e:	48 85 c0             	test   %rax,%rax
  402771:	74 35                	je     4027a8 <manager_addRoom+0xf8>
        TMMAP_INSERT(tablePtr, id, reservationPtr);
  402773:	48 89 ee             	mov    %rbp,%rsi
  402776:	4c 89 e7             	mov    %r12,%rdi
  402779:	48 89 c2             	mov    %rax,%rdx
  40277c:	e8 ef 52 00 00       	callq  407a70 <TMrbtree_insert>
bool_t
manager_addRoom (TM_ARGDECL
                 manager_t* managerPtr, long roomId, long numRoom, long price)
{
    return addReservation(TM_ARG  managerPtr->roomTablePtr, roomId, numRoom, price);
}
  402781:	5b                   	pop    %rbx
  402782:	5d                   	pop    %rbp
  402783:	41 5c                	pop    %r12
  402785:	41 5d                	pop    %r13
        } else {
            RESERVATION_UPDATE_PRICE(reservationPtr, price);
        }
    }

    return TRUE;
  402787:	b8 01 00 00 00       	mov    $0x1,%eax
bool_t
manager_addRoom (TM_ARGDECL
                 manager_t* managerPtr, long roomId, long numRoom, long price)
{
    return addReservation(TM_ARG  managerPtr->roomTablePtr, roomId, numRoom, price);
}
  40278c:	41 5e                	pop    %r14
  40278e:	c3                   	retq   
            return FALSE;
        }
        if ((long)TM_SHARED_READ(reservationPtr->numTotal) == 0) {
            bool_t status = TMMAP_REMOVE(tablePtr, id);
            if (status == FALSE) {
                TM_RESTART();
  40278f:	b9 b3 8d 40 00       	mov    $0x408db3,%ecx
  402794:	ba cc 00 00 00       	mov    $0xcc,%edx
  402799:	be 32 8c 40 00       	mov    $0x408c32,%esi
  40279e:	bf f9 8d 40 00       	mov    $0x408df9,%edi
  4027a3:	e8 a8 e4 ff ff       	callq  400c50 <__assert_fail@plt>
        /* Create new reservation */
        if (num < 1 || price < 0) {
            return FALSE;
        }
        reservationPtr = RESERVATION_ALLOC(id, num, price);
        assert(reservationPtr != NULL);
  4027a8:	b9 b3 8d 40 00       	mov    $0x408db3,%ecx
  4027ad:	ba c2 00 00 00       	mov    $0xc2,%edx
  4027b2:	be 32 8c 40 00       	mov    $0x408c32,%esi
  4027b7:	bf 56 8c 40 00       	mov    $0x408c56,%edi
  4027bc:	e8 8f e4 ff ff       	callq  400c50 <__assert_fail@plt>
  4027c1:	66 66 66 66 66 66 2e 	data32 data32 data32 data32 data32 nopw %cs:0x0(%rax,%rax,1)
  4027c8:	0f 1f 84 00 00 00 00 
  4027cf:	00 

00000000004027d0 <manager_addRoom_seq>:
}


bool_t
manager_addRoom_seq (manager_t* managerPtr, long roomId, long numRoom, long price)
{
  4027d0:	41 56                	push   %r14
  4027d2:	49 89 ce             	mov    %rcx,%r14
  4027d5:	41 55                	push   %r13
  4027d7:	49 89 d5             	mov    %rdx,%r13
  4027da:	41 54                	push   %r12
  4027dc:	55                   	push   %rbp
  4027dd:	48 89 f5             	mov    %rsi,%rbp
  4027e0:	53                   	push   %rbx
    return addReservation_seq(managerPtr->roomTablePtr, roomId, numRoom, price);
  4027e1:	4c 8b 67 08          	mov    0x8(%rdi),%r12
addReservation_seq (MAP_T* tablePtr, long id, long num, long price)
{
    reservation_t* reservationPtr;
    bool_t status;

    reservationPtr = (reservation_t*)MAP_FIND(tablePtr, id);
  4027e5:	4c 89 e7             	mov    %r12,%rdi
  4027e8:	e8 d3 58 00 00       	callq  4080c0 <rbtree_get>
    if (reservationPtr == NULL) {
  4027ed:	48 85 c0             	test   %rax,%rax
addReservation_seq (MAP_T* tablePtr, long id, long num, long price)
{
    reservation_t* reservationPtr;
    bool_t status;

    reservationPtr = (reservation_t*)MAP_FIND(tablePtr, id);
  4027f0:	48 89 c3             	mov    %rax,%rbx
    if (reservationPtr == NULL) {
  4027f3:	74 3b                	je     402830 <manager_addRoom_seq+0x60>
        assert(reservationPtr != NULL);
        status = MAP_INSERT(tablePtr, id, reservationPtr);
        assert(status);
    } else {
        /* Update existing reservation */
        if (!reservation_addToTotal_seq(reservationPtr, num)) {
  4027f5:	4c 89 ee             	mov    %r13,%rsi
  4027f8:	48 89 c7             	mov    %rax,%rdi
  4027fb:	e8 f0 0c 00 00       	callq  4034f0 <reservation_addToTotal_seq>
  402800:	48 85 c0             	test   %rax,%rax
  402803:	74 3b                	je     402840 <manager_addRoom_seq+0x70>
            return FALSE;
        }
        if (reservationPtr->numTotal == 0) {
  402805:	48 83 7b 18 00       	cmpq   $0x0,0x18(%rbx)
  40280a:	75 44                	jne    402850 <manager_addRoom_seq+0x80>
            status = MAP_REMOVE(tablePtr, id);
  40280c:	48 89 ee             	mov    %rbp,%rsi
  40280f:	4c 89 e7             	mov    %r12,%rdi
  402812:	e8 69 53 00 00       	callq  407b80 <rbtree_delete>
            assert(status);
  402817:	48 85 c0             	test   %rax,%rax
  40281a:	0f 84 7f 00 00 00    	je     40289f <manager_addRoom_seq+0xcf>

bool_t
manager_addRoom_seq (manager_t* managerPtr, long roomId, long numRoom, long price)
{
    return addReservation_seq(managerPtr->roomTablePtr, roomId, numRoom, price);
}
  402820:	5b                   	pop    %rbx
  402821:	5d                   	pop    %rbp
  402822:	41 5c                	pop    %r12
  402824:	41 5d                	pop    %r13
        } else {
            reservation_updatePrice_seq(reservationPtr, price);
        }
    }

    return TRUE;
  402826:	b8 01 00 00 00       	mov    $0x1,%eax

bool_t
manager_addRoom_seq (manager_t* managerPtr, long roomId, long numRoom, long price)
{
    return addReservation_seq(managerPtr->roomTablePtr, roomId, numRoom, price);
}
  40282b:	41 5e                	pop    %r14
  40282d:	c3                   	retq   
  40282e:	66 90                	xchg   %ax,%ax
    bool_t status;

    reservationPtr = (reservation_t*)MAP_FIND(tablePtr, id);
    if (reservationPtr == NULL) {
        /* Create new reservation */
        if (num < 1 || price < 0) {
  402830:	4d 85 ed             	test   %r13,%r13
  402833:	7e 0b                	jle    402840 <manager_addRoom_seq+0x70>
  402835:	4c 89 f0             	mov    %r14,%rax
  402838:	48 c1 e8 3f          	shr    $0x3f,%rax
  40283c:	84 c0                	test   %al,%al
  40283e:	74 20                	je     402860 <manager_addRoom_seq+0x90>

bool_t
manager_addRoom_seq (manager_t* managerPtr, long roomId, long numRoom, long price)
{
    return addReservation_seq(managerPtr->roomTablePtr, roomId, numRoom, price);
}
  402840:	5b                   	pop    %rbx
  402841:	5d                   	pop    %rbp
  402842:	41 5c                	pop    %r12
  402844:	41 5d                	pop    %r13

    reservationPtr = (reservation_t*)MAP_FIND(tablePtr, id);
    if (reservationPtr == NULL) {
        /* Create new reservation */
        if (num < 1 || price < 0) {
            return FALSE;
  402846:	31 c0                	xor    %eax,%eax

bool_t
manager_addRoom_seq (manager_t* managerPtr, long roomId, long numRoom, long price)
{
    return addReservation_seq(managerPtr->roomTablePtr, roomId, numRoom, price);
}
  402848:	41 5e                	pop    %r14
  40284a:	c3                   	retq   
  40284b:	0f 1f 44 00 00       	nopl   0x0(%rax,%rax,1)
        }
        if (reservationPtr->numTotal == 0) {
            status = MAP_REMOVE(tablePtr, id);
            assert(status);
        } else {
            reservation_updatePrice_seq(reservationPtr, price);
  402850:	4c 89 f6             	mov    %r14,%rsi
  402853:	48 89 df             	mov    %rbx,%rdi
  402856:	e8 b5 10 00 00       	callq  403910 <reservation_updatePrice_seq>
  40285b:	eb c3                	jmp    402820 <manager_addRoom_seq+0x50>
  40285d:	0f 1f 00             	nopl   (%rax)
    if (reservationPtr == NULL) {
        /* Create new reservation */
        if (num < 1 || price < 0) {
            return FALSE;
        }
        reservationPtr = reservation_alloc_seq(id, num, price);
  402860:	4c 89 f2             	mov    %r14,%rdx
  402863:	4c 89 ee             	mov    %r13,%rsi
  402866:	48 89 ef             	mov    %rbp,%rdi
  402869:	e8 62 0b 00 00       	callq  4033d0 <reservation_alloc_seq>
        assert(reservationPtr != NULL);
  40286e:	48 85 c0             	test   %rax,%rax
  402871:	74 45                	je     4028b8 <manager_addRoom_seq+0xe8>
        status = MAP_INSERT(tablePtr, id, reservationPtr);
  402873:	48 89 c2             	mov    %rax,%rdx
  402876:	48 89 ee             	mov    %rbp,%rsi
  402879:	4c 89 e7             	mov    %r12,%rdi
  40287c:	e8 df 50 00 00       	callq  407960 <rbtree_insert>
        assert(status);
  402881:	48 85 c0             	test   %rax,%rax
  402884:	75 9a                	jne    402820 <manager_addRoom_seq+0x50>
  402886:	b9 a0 8d 40 00       	mov    $0x408da0,%ecx
  40288b:	ba e7 00 00 00       	mov    $0xe7,%edx
  402890:	be 32 8c 40 00       	mov    $0x408c32,%esi
  402895:	bf 74 8c 40 00       	mov    $0x408c74,%edi
  40289a:	e8 b1 e3 ff ff       	callq  400c50 <__assert_fail@plt>
        if (!reservation_addToTotal_seq(reservationPtr, num)) {
            return FALSE;
        }
        if (reservationPtr->numTotal == 0) {
            status = MAP_REMOVE(tablePtr, id);
            assert(status);
  40289f:	b9 a0 8d 40 00       	mov    $0x408da0,%ecx
  4028a4:	ba ef 00 00 00       	mov    $0xef,%edx
  4028a9:	be 32 8c 40 00       	mov    $0x408c32,%esi
  4028ae:	bf 74 8c 40 00       	mov    $0x408c74,%edi
  4028b3:	e8 98 e3 ff ff       	callq  400c50 <__assert_fail@plt>
        /* Create new reservation */
        if (num < 1 || price < 0) {
            return FALSE;
        }
        reservationPtr = reservation_alloc_seq(id, num, price);
        assert(reservationPtr != NULL);
  4028b8:	b9 a0 8d 40 00       	mov    $0x408da0,%ecx
  4028bd:	ba e5 00 00 00       	mov    $0xe5,%edx
  4028c2:	be 32 8c 40 00       	mov    $0x408c32,%esi
  4028c7:	bf 56 8c 40 00       	mov    $0x408c56,%edi
  4028cc:	e8 7f e3 ff ff       	callq  400c50 <__assert_fail@plt>
  4028d1:	66 66 66 66 66 66 2e 	data32 data32 data32 data32 data32 nopw %cs:0x0(%rax,%rax,1)
  4028d8:	0f 1f 84 00 00 00 00 
  4028df:	00 

00000000004028e0 <manager_deleteRoom>:
 * -- Returns TRUE on success, else FALSE
 * =============================================================================
 */
bool_t
manager_deleteRoom (TM_ARGDECL  manager_t* managerPtr, long roomId, long numRoom)
{
  4028e0:	41 55                	push   %r13
  4028e2:	49 89 d5             	mov    %rdx,%r13
  4028e5:	41 54                	push   %r12
  4028e7:	49 89 f4             	mov    %rsi,%r12
  4028ea:	55                   	push   %rbp
  4028eb:	53                   	push   %rbx
  4028ec:	48 83 ec 08          	sub    $0x8,%rsp
    /* -1 keeps old price */
    return addReservation(TM_ARG  managerPtr->roomTablePtr, roomId, -numRoom, -1);
  4028f0:	48 8b 6f 08          	mov    0x8(%rdi),%rbp
bool_t
addReservation (TM_ARGDECL  MAP_T* tablePtr, long id, long num, long price)
{
    reservation_t* reservationPtr;

    reservationPtr = (reservation_t*)TMMAP_FIND(tablePtr, id);
  4028f4:	48 89 ef             	mov    %rbp,%rdi
  4028f7:	e8 14 58 00 00       	callq  408110 <TMrbtree_get>
    if (reservationPtr == NULL) {
  4028fc:	48 85 c0             	test   %rax,%rax
bool_t
addReservation (TM_ARGDECL  MAP_T* tablePtr, long id, long num, long price)
{
    reservation_t* reservationPtr;

    reservationPtr = (reservation_t*)TMMAP_FIND(tablePtr, id);
  4028ff:	48 89 c3             	mov    %rax,%rbx
    if (reservationPtr == NULL) {
  402902:	74 4c                	je     402950 <manager_deleteRoom+0x70>
 */
bool_t
manager_deleteRoom (TM_ARGDECL  manager_t* managerPtr, long roomId, long numRoom)
{
    /* -1 keeps old price */
    return addReservation(TM_ARG  managerPtr->roomTablePtr, roomId, -numRoom, -1);
  402904:	4c 89 ee             	mov    %r13,%rsi
        reservationPtr = RESERVATION_ALLOC(id, num, price);
        assert(reservationPtr != NULL);
        TMMAP_INSERT(tablePtr, id, reservationPtr);
    } else {
        /* Update existing reservation */
        if (!RESERVATION_ADD_TO_TOTAL(reservationPtr, num)) {
  402907:	48 89 c7             	mov    %rax,%rdi
 */
bool_t
manager_deleteRoom (TM_ARGDECL  manager_t* managerPtr, long roomId, long numRoom)
{
    /* -1 keeps old price */
    return addReservation(TM_ARG  managerPtr->roomTablePtr, roomId, -numRoom, -1);
  40290a:	48 f7 de             	neg    %rsi
        reservationPtr = RESERVATION_ALLOC(id, num, price);
        assert(reservationPtr != NULL);
        TMMAP_INSERT(tablePtr, id, reservationPtr);
    } else {
        /* Update existing reservation */
        if (!RESERVATION_ADD_TO_TOTAL(reservationPtr, num)) {
  40290d:	e8 3e 0b 00 00       	callq  403450 <reservation_addToTotal>
  402912:	48 85 c0             	test   %rax,%rax
  402915:	74 39                	je     402950 <manager_deleteRoom+0x70>
            return FALSE;
        }
        if ((long)TM_SHARED_READ(reservationPtr->numTotal) == 0) {
  402917:	48 83 7b 18 00       	cmpq   $0x0,0x18(%rbx)
  40291c:	75 42                	jne    402960 <manager_deleteRoom+0x80>
            bool_t status = TMMAP_REMOVE(tablePtr, id);
  40291e:	4c 89 e6             	mov    %r12,%rsi
  402921:	48 89 ef             	mov    %rbp,%rdi
  402924:	e8 d7 53 00 00       	callq  407d00 <TMrbtree_delete>
            if (status == FALSE) {
  402929:	48 85 c0             	test   %rax,%rax
  40292c:	74 51                	je     40297f <manager_deleteRoom+0x9f>
                TM_RESTART();
            }
            RESERVATION_FREE(reservationPtr);
  40292e:	48 89 df             	mov    %rbx,%rdi
  402931:	e8 9a 10 00 00       	callq  4039d0 <reservation_free>
bool_t
manager_deleteRoom (TM_ARGDECL  manager_t* managerPtr, long roomId, long numRoom)
{
    /* -1 keeps old price */
    return addReservation(TM_ARG  managerPtr->roomTablePtr, roomId, -numRoom, -1);
}
  402936:	48 83 c4 08          	add    $0x8,%rsp
        } else {
            RESERVATION_UPDATE_PRICE(reservationPtr, price);
        }
    }

    return TRUE;
  40293a:	b8 01 00 00 00       	mov    $0x1,%eax
bool_t
manager_deleteRoom (TM_ARGDECL  manager_t* managerPtr, long roomId, long numRoom)
{
    /* -1 keeps old price */
    return addReservation(TM_ARG  managerPtr->roomTablePtr, roomId, -numRoom, -1);
}
  40293f:	5b                   	pop    %rbx
  402940:	5d                   	pop    %rbp
  402941:	41 5c                	pop    %r12
  402943:	41 5d                	pop    %r13
  402945:	c3                   	retq   
  402946:	66 2e 0f 1f 84 00 00 	nopw   %cs:0x0(%rax,%rax,1)
  40294d:	00 00 00 
  402950:	48 83 c4 08          	add    $0x8,%rsp

    reservationPtr = (reservation_t*)TMMAP_FIND(tablePtr, id);
    if (reservationPtr == NULL) {
        /* Create new reservation */
        if (num < 1 || price < 0) {
            return FALSE;
  402954:	31 c0                	xor    %eax,%eax
bool_t
manager_deleteRoom (TM_ARGDECL  manager_t* managerPtr, long roomId, long numRoom)
{
    /* -1 keeps old price */
    return addReservation(TM_ARG  managerPtr->roomTablePtr, roomId, -numRoom, -1);
}
  402956:	5b                   	pop    %rbx
  402957:	5d                   	pop    %rbp
  402958:	41 5c                	pop    %r12
  40295a:	41 5d                	pop    %r13
  40295c:	c3                   	retq   
  40295d:	0f 1f 00             	nopl   (%rax)
            if (status == FALSE) {
                TM_RESTART();
            }
            RESERVATION_FREE(reservationPtr);
        } else {
            RESERVATION_UPDATE_PRICE(reservationPtr, price);
  402960:	48 89 df             	mov    %rbx,%rdi
  402963:	48 c7 c6 ff ff ff ff 	mov    $0xffffffffffffffff,%rsi
  40296a:	e8 01 0f 00 00       	callq  403870 <reservation_updatePrice>
bool_t
manager_deleteRoom (TM_ARGDECL  manager_t* managerPtr, long roomId, long numRoom)
{
    /* -1 keeps old price */
    return addReservation(TM_ARG  managerPtr->roomTablePtr, roomId, -numRoom, -1);
}
  40296f:	48 83 c4 08          	add    $0x8,%rsp
        } else {
            RESERVATION_UPDATE_PRICE(reservationPtr, price);
        }
    }

    return TRUE;
  402973:	b8 01 00 00 00       	mov    $0x1,%eax
bool_t
manager_deleteRoom (TM_ARGDECL  manager_t* managerPtr, long roomId, long numRoom)
{
    /* -1 keeps old price */
    return addReservation(TM_ARG  managerPtr->roomTablePtr, roomId, -numRoom, -1);
}
  402978:	5b                   	pop    %rbx
  402979:	5d                   	pop    %rbp
  40297a:	41 5c                	pop    %r12
  40297c:	41 5d                	pop    %r13
  40297e:	c3                   	retq   
            return FALSE;
        }
        if ((long)TM_SHARED_READ(reservationPtr->numTotal) == 0) {
            bool_t status = TMMAP_REMOVE(tablePtr, id);
            if (status == FALSE) {
                TM_RESTART();
  40297f:	b9 b3 8d 40 00       	mov    $0x408db3,%ecx
  402984:	ba cc 00 00 00       	mov    $0xcc,%edx
  402989:	be 32 8c 40 00       	mov    $0x408c32,%esi
  40298e:	bf f9 8d 40 00       	mov    $0x408df9,%edi
  402993:	e8 b8 e2 ff ff       	callq  400c50 <__assert_fail@plt>
  402998:	0f 1f 84 00 00 00 00 	nopl   0x0(%rax,%rax,1)
  40299f:	00 

00000000004029a0 <manager_addFlight>:
 * =============================================================================
 */
bool_t
manager_addFlight (TM_ARGDECL
                   manager_t* managerPtr, long flightId, long numSeat, long price)
{
  4029a0:	41 56                	push   %r14
  4029a2:	49 89 ce             	mov    %rcx,%r14
  4029a5:	41 55                	push   %r13
  4029a7:	49 89 d5             	mov    %rdx,%r13
  4029aa:	41 54                	push   %r12
  4029ac:	55                   	push   %rbp
  4029ad:	48 89 f5             	mov    %rsi,%rbp
  4029b0:	53                   	push   %rbx
    return addReservation(TM_ARG
  4029b1:	4c 8b 67 10          	mov    0x10(%rdi),%r12
bool_t
addReservation (TM_ARGDECL  MAP_T* tablePtr, long id, long num, long price)
{
    reservation_t* reservationPtr;

    reservationPtr = (reservation_t*)TMMAP_FIND(tablePtr, id);
  4029b5:	4c 89 e7             	mov    %r12,%rdi
  4029b8:	e8 53 57 00 00       	callq  408110 <TMrbtree_get>
    if (reservationPtr == NULL) {
  4029bd:	48 85 c0             	test   %rax,%rax
bool_t
addReservation (TM_ARGDECL  MAP_T* tablePtr, long id, long num, long price)
{
    reservation_t* reservationPtr;

    reservationPtr = (reservation_t*)TMMAP_FIND(tablePtr, id);
  4029c0:	48 89 c3             	mov    %rax,%rbx
    if (reservationPtr == NULL) {
  4029c3:	74 4b                	je     402a10 <manager_addFlight+0x70>
        reservationPtr = RESERVATION_ALLOC(id, num, price);
        assert(reservationPtr != NULL);
        TMMAP_INSERT(tablePtr, id, reservationPtr);
    } else {
        /* Update existing reservation */
        if (!RESERVATION_ADD_TO_TOTAL(reservationPtr, num)) {
  4029c5:	4c 89 ee             	mov    %r13,%rsi
  4029c8:	48 89 c7             	mov    %rax,%rdi
  4029cb:	e8 80 0a 00 00       	callq  403450 <reservation_addToTotal>
  4029d0:	48 85 c0             	test   %rax,%rax
  4029d3:	74 4b                	je     402a20 <manager_addFlight+0x80>
            return FALSE;
        }
        if ((long)TM_SHARED_READ(reservationPtr->numTotal) == 0) {
  4029d5:	48 83 7b 18 00       	cmpq   $0x0,0x18(%rbx)
  4029da:	75 54                	jne    402a30 <manager_addFlight+0x90>
            bool_t status = TMMAP_REMOVE(tablePtr, id);
  4029dc:	48 89 ee             	mov    %rbp,%rsi
  4029df:	4c 89 e7             	mov    %r12,%rdi
  4029e2:	e8 19 53 00 00       	callq  407d00 <TMrbtree_delete>
            if (status == FALSE) {
  4029e7:	48 85 c0             	test   %rax,%rax
  4029ea:	0f 84 8f 00 00 00    	je     402a7f <manager_addFlight+0xdf>
                TM_RESTART();
            }
            RESERVATION_FREE(reservationPtr);
  4029f0:	48 89 df             	mov    %rbx,%rdi
  4029f3:	e8 d8 0f 00 00       	callq  4039d0 <reservation_free>
manager_addFlight (TM_ARGDECL
                   manager_t* managerPtr, long flightId, long numSeat, long price)
{
    return addReservation(TM_ARG
                          managerPtr->flightTablePtr, flightId, numSeat, price);
}
  4029f8:	5b                   	pop    %rbx
  4029f9:	5d                   	pop    %rbp
  4029fa:	41 5c                	pop    %r12
  4029fc:	41 5d                	pop    %r13
        } else {
            RESERVATION_UPDATE_PRICE(reservationPtr, price);
        }
    }

    return TRUE;
  4029fe:	b8 01 00 00 00       	mov    $0x1,%eax
manager_addFlight (TM_ARGDECL
                   manager_t* managerPtr, long flightId, long numSeat, long price)
{
    return addReservation(TM_ARG
                          managerPtr->flightTablePtr, flightId, numSeat, price);
}
  402a03:	41 5e                	pop    %r14
  402a05:	c3                   	retq   
  402a06:	66 2e 0f 1f 84 00 00 	nopw   %cs:0x0(%rax,%rax,1)
  402a0d:	00 00 00 
    reservation_t* reservationPtr;

    reservationPtr = (reservation_t*)TMMAP_FIND(tablePtr, id);
    if (reservationPtr == NULL) {
        /* Create new reservation */
        if (num < 1 || price < 0) {
  402a10:	4d 85 ed             	test   %r13,%r13
  402a13:	7e 0b                	jle    402a20 <manager_addFlight+0x80>
  402a15:	4c 89 f0             	mov    %r14,%rax
  402a18:	48 c1 e8 3f          	shr    $0x3f,%rax
  402a1c:	84 c0                	test   %al,%al
  402a1e:	74 30                	je     402a50 <manager_addFlight+0xb0>
manager_addFlight (TM_ARGDECL
                   manager_t* managerPtr, long flightId, long numSeat, long price)
{
    return addReservation(TM_ARG
                          managerPtr->flightTablePtr, flightId, numSeat, price);
}
  402a20:	5b                   	pop    %rbx
  402a21:	5d                   	pop    %rbp
  402a22:	41 5c                	pop    %r12
  402a24:	41 5d                	pop    %r13

    reservationPtr = (reservation_t*)TMMAP_FIND(tablePtr, id);
    if (reservationPtr == NULL) {
        /* Create new reservation */
        if (num < 1 || price < 0) {
            return FALSE;
  402a26:	31 c0                	xor    %eax,%eax
manager_addFlight (TM_ARGDECL
                   manager_t* managerPtr, long flightId, long numSeat, long price)
{
    return addReservation(TM_ARG
                          managerPtr->flightTablePtr, flightId, numSeat, price);
}
  402a28:	41 5e                	pop    %r14
  402a2a:	c3                   	retq   
  402a2b:	0f 1f 44 00 00       	nopl   0x0(%rax,%rax,1)
            if (status == FALSE) {
                TM_RESTART();
            }
            RESERVATION_FREE(reservationPtr);
        } else {
            RESERVATION_UPDATE_PRICE(reservationPtr, price);
  402a30:	4c 89 f6             	mov    %r14,%rsi
  402a33:	48 89 df             	mov    %rbx,%rdi
  402a36:	e8 35 0e 00 00       	callq  403870 <reservation_updatePrice>
manager_addFlight (TM_ARGDECL
                   manager_t* managerPtr, long flightId, long numSeat, long price)
{
    return addReservation(TM_ARG
                          managerPtr->flightTablePtr, flightId, numSeat, price);
}
  402a3b:	5b                   	pop    %rbx
  402a3c:	5d                   	pop    %rbp
  402a3d:	41 5c                	pop    %r12
  402a3f:	41 5d                	pop    %r13
        } else {
            RESERVATION_UPDATE_PRICE(reservationPtr, price);
        }
    }

    return TRUE;
  402a41:	b8 01 00 00 00       	mov    $0x1,%eax
manager_addFlight (TM_ARGDECL
                   manager_t* managerPtr, long flightId, long numSeat, long price)
{
    return addReservation(TM_ARG
                          managerPtr->flightTablePtr, flightId, numSeat, price);
}
  402a46:	41 5e                	pop    %r14
  402a48:	c3                   	retq   
  402a49:	0f 1f 80 00 00 00 00 	nopl   0x0(%rax)
    if (reservationPtr == NULL) {
        /* Create new reservation */
        if (num < 1 || price < 0) {
            return FALSE;
        }
        reservationPtr = RESERVATION_ALLOC(id, num, price);
  402a50:	4c 89 f2             	mov    %r14,%rdx
  402a53:	4c 89 ee             	mov    %r13,%rsi
  402a56:	48 89 ef             	mov    %rbp,%rdi
  402a59:	e8 f2 08 00 00       	callq  403350 <reservation_alloc>
        assert(reservationPtr != NULL);
  402a5e:	48 85 c0             	test   %rax,%rax
  402a61:	74 35                	je     402a98 <manager_addFlight+0xf8>
        TMMAP_INSERT(tablePtr, id, reservationPtr);
  402a63:	48 89 ee             	mov    %rbp,%rsi
  402a66:	4c 89 e7             	mov    %r12,%rdi
  402a69:	48 89 c2             	mov    %rax,%rdx
  402a6c:	e8 ff 4f 00 00       	callq  407a70 <TMrbtree_insert>
manager_addFlight (TM_ARGDECL
                   manager_t* managerPtr, long flightId, long numSeat, long price)
{
    return addReservation(TM_ARG
                          managerPtr->flightTablePtr, flightId, numSeat, price);
}
  402a71:	5b                   	pop    %rbx
  402a72:	5d                   	pop    %rbp
  402a73:	41 5c                	pop    %r12
  402a75:	41 5d                	pop    %r13
        } else {
            RESERVATION_UPDATE_PRICE(reservationPtr, price);
        }
    }

    return TRUE;
  402a77:	b8 01 00 00 00       	mov    $0x1,%eax
manager_addFlight (TM_ARGDECL
                   manager_t* managerPtr, long flightId, long numSeat, long price)
{
    return addReservation(TM_ARG
                          managerPtr->flightTablePtr, flightId, numSeat, price);
}
  402a7c:	41 5e                	pop    %r14
  402a7e:	c3                   	retq   
            return FALSE;
        }
        if ((long)TM_SHARED_READ(reservationPtr->numTotal) == 0) {
            bool_t status = TMMAP_REMOVE(tablePtr, id);
            if (status == FALSE) {
                TM_RESTART();
  402a7f:	b9 b3 8d 40 00       	mov    $0x408db3,%ecx
  402a84:	ba cc 00 00 00       	mov    $0xcc,%edx
  402a89:	be 32 8c 40 00       	mov    $0x408c32,%esi
  402a8e:	bf f9 8d 40 00       	mov    $0x408df9,%edi
  402a93:	e8 b8 e1 ff ff       	callq  400c50 <__assert_fail@plt>
        /* Create new reservation */
        if (num < 1 || price < 0) {
            return FALSE;
        }
        reservationPtr = RESERVATION_ALLOC(id, num, price);
        assert(reservationPtr != NULL);
  402a98:	b9 b3 8d 40 00       	mov    $0x408db3,%ecx
  402a9d:	ba c2 00 00 00       	mov    $0xc2,%edx
  402aa2:	be 32 8c 40 00       	mov    $0x408c32,%esi
  402aa7:	bf 56 8c 40 00       	mov    $0x408c56,%edi
  402aac:	e8 9f e1 ff ff       	callq  400c50 <__assert_fail@plt>
  402ab1:	66 66 66 66 66 66 2e 	data32 data32 data32 data32 data32 nopw %cs:0x0(%rax,%rax,1)
  402ab8:	0f 1f 84 00 00 00 00 
  402abf:	00 

0000000000402ac0 <manager_addFlight_seq>:
}


bool_t
manager_addFlight_seq (manager_t* managerPtr, long flightId, long numSeat, long price)
{
  402ac0:	41 56                	push   %r14
  402ac2:	49 89 ce             	mov    %rcx,%r14
  402ac5:	41 55                	push   %r13
  402ac7:	49 89 d5             	mov    %rdx,%r13
  402aca:	41 54                	push   %r12
  402acc:	55                   	push   %rbp
  402acd:	48 89 f5             	mov    %rsi,%rbp
  402ad0:	53                   	push   %rbx
    return addReservation_seq(managerPtr->flightTablePtr, flightId, numSeat, price);
  402ad1:	4c 8b 67 10          	mov    0x10(%rdi),%r12
addReservation_seq (MAP_T* tablePtr, long id, long num, long price)
{
    reservation_t* reservationPtr;
    bool_t status;

    reservationPtr = (reservation_t*)MAP_FIND(tablePtr, id);
  402ad5:	4c 89 e7             	mov    %r12,%rdi
  402ad8:	e8 e3 55 00 00       	callq  4080c0 <rbtree_get>
    if (reservationPtr == NULL) {
  402add:	48 85 c0             	test   %rax,%rax
addReservation_seq (MAP_T* tablePtr, long id, long num, long price)
{
    reservation_t* reservationPtr;
    bool_t status;

    reservationPtr = (reservation_t*)MAP_FIND(tablePtr, id);
  402ae0:	48 89 c3             	mov    %rax,%rbx
    if (reservationPtr == NULL) {
  402ae3:	74 3b                	je     402b20 <manager_addFlight_seq+0x60>
        assert(reservationPtr != NULL);
        status = MAP_INSERT(tablePtr, id, reservationPtr);
        assert(status);
    } else {
        /* Update existing reservation */
        if (!reservation_addToTotal_seq(reservationPtr, num)) {
  402ae5:	4c 89 ee             	mov    %r13,%rsi
  402ae8:	48 89 c7             	mov    %rax,%rdi
  402aeb:	e8 00 0a 00 00       	callq  4034f0 <reservation_addToTotal_seq>
  402af0:	48 85 c0             	test   %rax,%rax
  402af3:	74 3b                	je     402b30 <manager_addFlight_seq+0x70>
            return FALSE;
        }
        if (reservationPtr->numTotal == 0) {
  402af5:	48 83 7b 18 00       	cmpq   $0x0,0x18(%rbx)
  402afa:	75 44                	jne    402b40 <manager_addFlight_seq+0x80>
            status = MAP_REMOVE(tablePtr, id);
  402afc:	48 89 ee             	mov    %rbp,%rsi
  402aff:	4c 89 e7             	mov    %r12,%rdi
  402b02:	e8 79 50 00 00       	callq  407b80 <rbtree_delete>
            assert(status);
  402b07:	48 85 c0             	test   %rax,%rax
  402b0a:	0f 84 7f 00 00 00    	je     402b8f <manager_addFlight_seq+0xcf>

bool_t
manager_addFlight_seq (manager_t* managerPtr, long flightId, long numSeat, long price)
{
    return addReservation_seq(managerPtr->flightTablePtr, flightId, numSeat, price);
}
  402b10:	5b                   	pop    %rbx
  402b11:	5d                   	pop    %rbp
  402b12:	41 5c                	pop    %r12
  402b14:	41 5d                	pop    %r13
        } else {
            reservation_updatePrice_seq(reservationPtr, price);
        }
    }

    return TRUE;
  402b16:	b8 01 00 00 00       	mov    $0x1,%eax

bool_t
manager_addFlight_seq (manager_t* managerPtr, long flightId, long numSeat, long price)
{
    return addReservation_seq(managerPtr->flightTablePtr, flightId, numSeat, price);
}
  402b1b:	41 5e                	pop    %r14
  402b1d:	c3                   	retq   
  402b1e:	66 90                	xchg   %ax,%ax
    bool_t status;

    reservationPtr = (reservation_t*)MAP_FIND(tablePtr, id);
    if (reservationPtr == NULL) {
        /* Create new reservation */
        if (num < 1 || price < 0) {
  402b20:	4d 85 ed             	test   %r13,%r13
  402b23:	7e 0b                	jle    402b30 <manager_addFlight_seq+0x70>
  402b25:	4c 89 f0             	mov    %r14,%rax
  402b28:	48 c1 e8 3f          	shr    $0x3f,%rax
  402b2c:	84 c0                	test   %al,%al
  402b2e:	74 20                	je     402b50 <manager_addFlight_seq+0x90>

bool_t
manager_addFlight_seq (manager_t* managerPtr, long flightId, long numSeat, long price)
{
    return addReservation_seq(managerPtr->flightTablePtr, flightId, numSeat, price);
}
  402b30:	5b                   	pop    %rbx
  402b31:	5d                   	pop    %rbp
  402b32:	41 5c                	pop    %r12
  402b34:	41 5d                	pop    %r13

    reservationPtr = (reservation_t*)MAP_FIND(tablePtr, id);
    if (reservationPtr == NULL) {
        /* Create new reservation */
        if (num < 1 || price < 0) {
            return FALSE;
  402b36:	31 c0                	xor    %eax,%eax

bool_t
manager_addFlight_seq (manager_t* managerPtr, long flightId, long numSeat, long price)
{
    return addReservation_seq(managerPtr->flightTablePtr, flightId, numSeat, price);
}
  402b38:	41 5e                	pop    %r14
  402b3a:	c3                   	retq   
  402b3b:	0f 1f 44 00 00       	nopl   0x0(%rax,%rax,1)
        }
        if (reservationPtr->numTotal == 0) {
            status = MAP_REMOVE(tablePtr, id);
            assert(status);
        } else {
            reservation_updatePrice_seq(reservationPtr, price);
  402b40:	4c 89 f6             	mov    %r14,%rsi
  402b43:	48 89 df             	mov    %rbx,%rdi
  402b46:	e8 c5 0d 00 00       	callq  403910 <reservation_updatePrice_seq>
  402b4b:	eb c3                	jmp    402b10 <manager_addFlight_seq+0x50>
  402b4d:	0f 1f 00             	nopl   (%rax)
    if (reservationPtr == NULL) {
        /* Create new reservation */
        if (num < 1 || price < 0) {
            return FALSE;
        }
        reservationPtr = reservation_alloc_seq(id, num, price);
  402b50:	4c 89 f2             	mov    %r14,%rdx
  402b53:	4c 89 ee             	mov    %r13,%rsi
  402b56:	48 89 ef             	mov    %rbp,%rdi
  402b59:	e8 72 08 00 00       	callq  4033d0 <reservation_alloc_seq>
        assert(reservationPtr != NULL);
  402b5e:	48 85 c0             	test   %rax,%rax
  402b61:	74 45                	je     402ba8 <manager_addFlight_seq+0xe8>
        status = MAP_INSERT(tablePtr, id, reservationPtr);
  402b63:	48 89 c2             	mov    %rax,%rdx
  402b66:	48 89 ee             	mov    %rbp,%rsi
  402b69:	4c 89 e7             	mov    %r12,%rdi
  402b6c:	e8 ef 4d 00 00       	callq  407960 <rbtree_insert>
        assert(status);
  402b71:	48 85 c0             	test   %rax,%rax
  402b74:	75 9a                	jne    402b10 <manager_addFlight_seq+0x50>
  402b76:	b9 a0 8d 40 00       	mov    $0x408da0,%ecx
  402b7b:	ba e7 00 00 00       	mov    $0xe7,%edx
  402b80:	be 32 8c 40 00       	mov    $0x408c32,%esi
  402b85:	bf 74 8c 40 00       	mov    $0x408c74,%edi
  402b8a:	e8 c1 e0 ff ff       	callq  400c50 <__assert_fail@plt>
        if (!reservation_addToTotal_seq(reservationPtr, num)) {
            return FALSE;
        }
        if (reservationPtr->numTotal == 0) {
            status = MAP_REMOVE(tablePtr, id);
            assert(status);
  402b8f:	b9 a0 8d 40 00       	mov    $0x408da0,%ecx
  402b94:	ba ef 00 00 00       	mov    $0xef,%edx
  402b99:	be 32 8c 40 00       	mov    $0x408c32,%esi
  402b9e:	bf 74 8c 40 00       	mov    $0x408c74,%edi
  402ba3:	e8 a8 e0 ff ff       	callq  400c50 <__assert_fail@plt>
        /* Create new reservation */
        if (num < 1 || price < 0) {
            return FALSE;
        }
        reservationPtr = reservation_alloc_seq(id, num, price);
        assert(reservationPtr != NULL);
  402ba8:	b9 a0 8d 40 00       	mov    $0x408da0,%ecx
  402bad:	ba e5 00 00 00       	mov    $0xe5,%edx
  402bb2:	be 32 8c 40 00       	mov    $0x408c32,%esi
  402bb7:	bf 56 8c 40 00       	mov    $0x408c56,%edi
  402bbc:	e8 8f e0 ff ff       	callq  400c50 <__assert_fail@plt>
  402bc1:	66 66 66 66 66 66 2e 	data32 data32 data32 data32 data32 nopw %cs:0x0(%rax,%rax,1)
  402bc8:	0f 1f 84 00 00 00 00 
  402bcf:	00 

0000000000402bd0 <manager_deleteFlight>:
 * -- Returns TRUE on success, else FALSE
 * =============================================================================
 */
bool_t
manager_deleteFlight (TM_ARGDECL  manager_t* managerPtr, long flightId)
{
  402bd0:	55                   	push   %rbp
  402bd1:	48 89 fd             	mov    %rdi,%rbp
  402bd4:	53                   	push   %rbx
  402bd5:	48 89 f3             	mov    %rsi,%rbx
  402bd8:	48 83 ec 08          	sub    $0x8,%rsp
    reservation_t* reservationPtr;

    reservationPtr = (reservation_t*)TMMAP_FIND(managerPtr->flightTablePtr, flightId);
  402bdc:	48 8b 7f 10          	mov    0x10(%rdi),%rdi
  402be0:	e8 2b 55 00 00       	callq  408110 <TMrbtree_get>
    if (reservationPtr == NULL) {
  402be5:	48 85 c0             	test   %rax,%rax
  402be8:	74 07                	je     402bf1 <manager_deleteFlight+0x21>
        return FALSE;
    }

    if ((long)TM_SHARED_READ(reservationPtr->numUsed) > 0) {
  402bea:	48 83 78 08 00       	cmpq   $0x0,0x8(%rax)
  402bef:	7e 0f                	jle    402c00 <manager_deleteFlight+0x30>
    return addReservation(TM_ARG
                          managerPtr->flightTablePtr,
                          flightId,
                          -1*(long)TM_SHARED_READ(reservationPtr->numTotal),
                          -1 /* -1 keeps old price */);
}
  402bf1:	48 83 c4 08          	add    $0x8,%rsp
  402bf5:	31 c0                	xor    %eax,%eax
  402bf7:	5b                   	pop    %rbx
  402bf8:	5d                   	pop    %rbp
  402bf9:	c3                   	retq   
  402bfa:	66 0f 1f 44 00 00    	nopw   0x0(%rax,%rax,1)

    if ((long)TM_SHARED_READ(reservationPtr->numUsed) > 0) {
        return FALSE; /* somebody has a reservation */
    }

    return addReservation(TM_ARG
  402c00:	48 8b 50 18          	mov    0x18(%rax),%rdx
  402c04:	48 8b 7d 10          	mov    0x10(%rbp),%rdi
                          managerPtr->flightTablePtr,
                          flightId,
                          -1*(long)TM_SHARED_READ(reservationPtr->numTotal),
                          -1 /* -1 keeps old price */);
}
  402c08:	48 83 c4 08          	add    $0x8,%rsp

    if ((long)TM_SHARED_READ(reservationPtr->numUsed) > 0) {
        return FALSE; /* somebody has a reservation */
    }

    return addReservation(TM_ARG
  402c0c:	48 89 de             	mov    %rbx,%rsi
  402c0f:	48 c7 c1 ff ff ff ff 	mov    $0xffffffffffffffff,%rcx
                          managerPtr->flightTablePtr,
                          flightId,
                          -1*(long)TM_SHARED_READ(reservationPtr->numTotal),
                          -1 /* -1 keeps old price */);
}
  402c16:	5b                   	pop    %rbx
  402c17:	5d                   	pop    %rbp

    if ((long)TM_SHARED_READ(reservationPtr->numUsed) > 0) {
        return FALSE; /* somebody has a reservation */
    }

    return addReservation(TM_ARG
  402c18:	48 f7 da             	neg    %rdx
  402c1b:	e9 80 f5 ff ff       	jmpq   4021a0 <addReservation>

0000000000402c20 <manager_addCustomer>:
 * -- Returns TRUE on success, else FALSE
 * =============================================================================
 */
bool_t
manager_addCustomer (TM_ARGDECL  manager_t* managerPtr, long customerId)
{
  402c20:	55                   	push   %rbp
  402c21:	48 89 fd             	mov    %rdi,%rbp
  402c24:	53                   	push   %rbx
  402c25:	48 89 f3             	mov    %rsi,%rbx
  402c28:	48 83 ec 08          	sub    $0x8,%rsp
    customer_t* customerPtr;
    bool_t status;

    if (TMMAP_CONTAINS(managerPtr->customerTablePtr, customerId)) {
  402c2c:	48 8b 7f 18          	mov    0x18(%rdi),%rdi
  402c30:	e8 7b 55 00 00       	callq  4081b0 <TMrbtree_contains>
        return FALSE;
  402c35:	31 d2                	xor    %edx,%edx
manager_addCustomer (TM_ARGDECL  manager_t* managerPtr, long customerId)
{
    customer_t* customerPtr;
    bool_t status;

    if (TMMAP_CONTAINS(managerPtr->customerTablePtr, customerId)) {
  402c37:	48 85 c0             	test   %rax,%rax
  402c3a:	74 14                	je     402c50 <manager_addCustomer+0x30>
    if (status == FALSE) {
        TM_RESTART();
    }

    return TRUE;
}
  402c3c:	48 83 c4 08          	add    $0x8,%rsp
  402c40:	48 89 d0             	mov    %rdx,%rax
  402c43:	5b                   	pop    %rbx
  402c44:	5d                   	pop    %rbp
  402c45:	c3                   	retq   
  402c46:	66 2e 0f 1f 84 00 00 	nopw   %cs:0x0(%rax,%rax,1)
  402c4d:	00 00 00 

    if (TMMAP_CONTAINS(managerPtr->customerTablePtr, customerId)) {
        return FALSE;
    }

    customerPtr = CUSTOMER_ALLOC(customerId);
  402c50:	48 89 df             	mov    %rbx,%rdi
  402c53:	e8 18 f2 ff ff       	callq  401e70 <customer_alloc>
    assert(customerPtr != NULL);
  402c58:	48 85 c0             	test   %rax,%rax
  402c5b:	74 23                	je     402c80 <manager_addCustomer+0x60>
    status = TMMAP_INSERT(managerPtr->customerTablePtr, customerId, customerPtr);
  402c5d:	48 8b 7d 18          	mov    0x18(%rbp),%rdi
  402c61:	48 89 c2             	mov    %rax,%rdx
  402c64:	48 89 de             	mov    %rbx,%rsi
  402c67:	e8 04 4e 00 00       	callq  407a70 <TMrbtree_insert>
    if (status == FALSE) {
  402c6c:	48 85 c0             	test   %rax,%rax
  402c6f:	74 28                	je     402c99 <manager_addCustomer+0x79>
        TM_RESTART();
    }

    return TRUE;
}
  402c71:	48 83 c4 08          	add    $0x8,%rsp
    status = TMMAP_INSERT(managerPtr->customerTablePtr, customerId, customerPtr);
    if (status == FALSE) {
        TM_RESTART();
    }

    return TRUE;
  402c75:	ba 01 00 00 00       	mov    $0x1,%edx
}
  402c7a:	5b                   	pop    %rbx
  402c7b:	48 89 d0             	mov    %rdx,%rax
  402c7e:	5d                   	pop    %rbp
  402c7f:	c3                   	retq   
    if (TMMAP_CONTAINS(managerPtr->customerTablePtr, customerId)) {
        return FALSE;
    }

    customerPtr = CUSTOMER_ALLOC(customerId);
    assert(customerPtr != NULL);
  402c80:	b9 80 8d 40 00       	mov    $0x408d80,%ecx
  402c85:	ba 8d 01 00 00       	mov    $0x18d,%edx
  402c8a:	be 32 8c 40 00       	mov    $0x408c32,%esi
  402c8f:	bf 53 8b 40 00       	mov    $0x408b53,%edi
  402c94:	e8 b7 df ff ff       	callq  400c50 <__assert_fail@plt>
    status = TMMAP_INSERT(managerPtr->customerTablePtr, customerId, customerPtr);
    if (status == FALSE) {
        TM_RESTART();
  402c99:	b9 80 8d 40 00       	mov    $0x408d80,%ecx
  402c9e:	ba 90 01 00 00       	mov    $0x190,%edx
  402ca3:	be 32 8c 40 00       	mov    $0x408c32,%esi
  402ca8:	bf f9 8d 40 00       	mov    $0x408df9,%edi
  402cad:	e8 9e df ff ff       	callq  400c50 <__assert_fail@plt>
  402cb2:	66 66 66 66 66 2e 0f 	data32 data32 data32 data32 nopw %cs:0x0(%rax,%rax,1)
  402cb9:	1f 84 00 00 00 00 00 

0000000000402cc0 <manager_addCustomer_seq>:
}


bool_t
manager_addCustomer_seq (manager_t* managerPtr, long customerId)
{
  402cc0:	55                   	push   %rbp
  402cc1:	48 89 fd             	mov    %rdi,%rbp
  402cc4:	53                   	push   %rbx
  402cc5:	48 89 f3             	mov    %rsi,%rbx
  402cc8:	48 83 ec 08          	sub    $0x8,%rsp
    customer_t* customerPtr;
    bool_t status;

    if (MAP_CONTAINS(managerPtr->customerTablePtr, customerId)) {
  402ccc:	48 8b 7f 18          	mov    0x18(%rdi),%rdi
  402cd0:	e8 8b 54 00 00       	callq  408160 <rbtree_contains>
        return FALSE;
  402cd5:	31 d2                	xor    %edx,%edx
manager_addCustomer_seq (manager_t* managerPtr, long customerId)
{
    customer_t* customerPtr;
    bool_t status;

    if (MAP_CONTAINS(managerPtr->customerTablePtr, customerId)) {
  402cd7:	48 85 c0             	test   %rax,%rax
  402cda:	74 14                	je     402cf0 <manager_addCustomer_seq+0x30>
    assert(customerPtr != NULL);
    status = MAP_INSERT(managerPtr->customerTablePtr, customerId, customerPtr);
    assert(status);

    return TRUE;
}
  402cdc:	48 83 c4 08          	add    $0x8,%rsp
  402ce0:	48 89 d0             	mov    %rdx,%rax
  402ce3:	5b                   	pop    %rbx
  402ce4:	5d                   	pop    %rbp
  402ce5:	c3                   	retq   
  402ce6:	66 2e 0f 1f 84 00 00 	nopw   %cs:0x0(%rax,%rax,1)
  402ced:	00 00 00 

    if (MAP_CONTAINS(managerPtr->customerTablePtr, customerId)) {
        return FALSE;
    }

    customerPtr = customer_alloc_seq(customerId);
  402cf0:	48 89 df             	mov    %rbx,%rdi
  402cf3:	e8 e8 f1 ff ff       	callq  401ee0 <customer_alloc_seq>
    assert(customerPtr != NULL);
  402cf8:	48 85 c0             	test   %rax,%rax
  402cfb:	74 23                	je     402d20 <manager_addCustomer_seq+0x60>
    status = MAP_INSERT(managerPtr->customerTablePtr, customerId, customerPtr);
  402cfd:	48 8b 7d 18          	mov    0x18(%rbp),%rdi
  402d01:	48 89 c2             	mov    %rax,%rdx
  402d04:	48 89 de             	mov    %rbx,%rsi
  402d07:	e8 54 4c 00 00       	callq  407960 <rbtree_insert>
    assert(status);
  402d0c:	48 85 c0             	test   %rax,%rax
  402d0f:	74 28                	je     402d39 <manager_addCustomer_seq+0x79>

    return TRUE;
}
  402d11:	48 83 c4 08          	add    $0x8,%rsp
    customerPtr = customer_alloc_seq(customerId);
    assert(customerPtr != NULL);
    status = MAP_INSERT(managerPtr->customerTablePtr, customerId, customerPtr);
    assert(status);

    return TRUE;
  402d15:	ba 01 00 00 00       	mov    $0x1,%edx
}
  402d1a:	5b                   	pop    %rbx
  402d1b:	48 89 d0             	mov    %rdx,%rax
  402d1e:	5d                   	pop    %rbp
  402d1f:	c3                   	retq   
    if (MAP_CONTAINS(managerPtr->customerTablePtr, customerId)) {
        return FALSE;
    }

    customerPtr = customer_alloc_seq(customerId);
    assert(customerPtr != NULL);
  402d20:	b9 60 8d 40 00       	mov    $0x408d60,%ecx
  402d25:	ba a2 01 00 00       	mov    $0x1a2,%edx
  402d2a:	be 32 8c 40 00       	mov    $0x408c32,%esi
  402d2f:	bf 53 8b 40 00       	mov    $0x408b53,%edi
  402d34:	e8 17 df ff ff       	callq  400c50 <__assert_fail@plt>
    status = MAP_INSERT(managerPtr->customerTablePtr, customerId, customerPtr);
    assert(status);
  402d39:	b9 60 8d 40 00       	mov    $0x408d60,%ecx
  402d3e:	ba a4 01 00 00       	mov    $0x1a4,%edx
  402d43:	be 32 8c 40 00       	mov    $0x408c32,%esi
  402d48:	bf 74 8c 40 00       	mov    $0x408c74,%edi
  402d4d:	e8 fe de ff ff       	callq  400c50 <__assert_fail@plt>
  402d52:	66 66 66 66 66 2e 0f 	data32 data32 data32 data32 nopw %cs:0x0(%rax,%rax,1)
  402d59:	1f 84 00 00 00 00 00 

0000000000402d60 <manager_deleteCustomer>:
 * -- Returns TRUE on success, else FALSE
 * =============================================================================
 */
bool_t
manager_deleteCustomer (TM_ARGDECL  manager_t* managerPtr, long customerId)
{
  402d60:	41 56                	push   %r14
  402d62:	49 89 f6             	mov    %rsi,%r14
  402d65:	41 55                	push   %r13
  402d67:	41 54                	push   %r12
  402d69:	49 89 fc             	mov    %rdi,%r12
  402d6c:	55                   	push   %rbp
  402d6d:	53                   	push   %rbx
  402d6e:	48 83 ec 30          	sub    $0x30,%rsp
    MAP_T* reservationTables[NUM_RESERVATION_TYPE];
    list_t* reservationInfoListPtr;
    list_iter_t it;
    bool_t status;

    customerPtr = (customer_t*)TMMAP_FIND(managerPtr->customerTablePtr, customerId);
  402d72:	48 8b 7f 18          	mov    0x18(%rdi),%rdi
  402d76:	e8 95 53 00 00       	callq  408110 <TMrbtree_get>
    if (customerPtr == NULL) {
  402d7b:	48 85 c0             	test   %rax,%rax
    MAP_T* reservationTables[NUM_RESERVATION_TYPE];
    list_t* reservationInfoListPtr;
    list_iter_t it;
    bool_t status;

    customerPtr = (customer_t*)TMMAP_FIND(managerPtr->customerTablePtr, customerId);
  402d7e:	49 89 c5             	mov    %rax,%r13
    if (customerPtr == NULL) {
  402d81:	0f 84 b1 00 00 00    	je     402e38 <manager_deleteCustomer+0xd8>
        return FALSE;
    }

    reservationTables[RESERVATION_CAR] = managerPtr->carTablePtr;
  402d87:	49 8b 04 24          	mov    (%r12),%rax
    reservationTables[RESERVATION_ROOM] = managerPtr->roomTablePtr;
    reservationTables[RESERVATION_FLIGHT] = managerPtr->flightTablePtr;

    /* Cancel this customer's reservations */
    reservationInfoListPtr = customerPtr->reservationInfoListPtr;
  402d8b:	49 8b 6d 08          	mov    0x8(%r13),%rbp
    TMLIST_ITER_RESET(&it, reservationInfoListPtr);
  402d8f:	48 8d 7c 24 08       	lea    0x8(%rsp),%rdi
    customerPtr = (customer_t*)TMMAP_FIND(managerPtr->customerTablePtr, customerId);
    if (customerPtr == NULL) {
        return FALSE;
    }

    reservationTables[RESERVATION_CAR] = managerPtr->carTablePtr;
  402d94:	48 89 44 24 10       	mov    %rax,0x10(%rsp)
    reservationTables[RESERVATION_ROOM] = managerPtr->roomTablePtr;
  402d99:	49 8b 44 24 08       	mov    0x8(%r12),%rax
    reservationTables[RESERVATION_FLIGHT] = managerPtr->flightTablePtr;

    /* Cancel this customer's reservations */
    reservationInfoListPtr = customerPtr->reservationInfoListPtr;
    TMLIST_ITER_RESET(&it, reservationInfoListPtr);
  402d9e:	48 89 ee             	mov    %rbp,%rsi
    if (customerPtr == NULL) {
        return FALSE;
    }

    reservationTables[RESERVATION_CAR] = managerPtr->carTablePtr;
    reservationTables[RESERVATION_ROOM] = managerPtr->roomTablePtr;
  402da1:	48 89 44 24 20       	mov    %rax,0x20(%rsp)
    reservationTables[RESERVATION_FLIGHT] = managerPtr->flightTablePtr;
  402da6:	49 8b 44 24 10       	mov    0x10(%r12),%rax
  402dab:	48 89 44 24 18       	mov    %rax,0x18(%rsp)

    /* Cancel this customer's reservations */
    reservationInfoListPtr = customerPtr->reservationInfoListPtr;
    TMLIST_ITER_RESET(&it, reservationInfoListPtr);
  402db0:	e8 6b 11 00 00       	callq  403f20 <TMlist_iter_reset>
    while (TMLIST_ITER_HASNEXT(&it, reservationInfoListPtr)) {
  402db5:	eb 43                	jmp    402dfa <manager_deleteCustomer+0x9a>
  402db7:	66 0f 1f 84 00 00 00 	nopw   0x0(%rax,%rax,1)
  402dbe:	00 00 
        reservation_info_t* reservationInfoPtr;
        reservation_t* reservationPtr;
        reservationInfoPtr =
  402dc0:	48 8d 7c 24 08       	lea    0x8(%rsp),%rdi
  402dc5:	48 89 ee             	mov    %rbp,%rsi
  402dc8:	e8 93 11 00 00       	callq  403f60 <TMlist_iter_next>
            (reservation_info_t*)TMLIST_ITER_NEXT(&it, reservationInfoListPtr);
        reservationPtr =
  402dcd:	48 8b 70 08          	mov    0x8(%rax),%rsi
    reservationInfoListPtr = customerPtr->reservationInfoListPtr;
    TMLIST_ITER_RESET(&it, reservationInfoListPtr);
    while (TMLIST_ITER_HASNEXT(&it, reservationInfoListPtr)) {
        reservation_info_t* reservationInfoPtr;
        reservation_t* reservationPtr;
        reservationInfoPtr =
  402dd1:	48 89 c3             	mov    %rax,%rbx
            (reservation_info_t*)TMLIST_ITER_NEXT(&it, reservationInfoListPtr);
        reservationPtr =
            (reservation_t*)TMMAP_FIND(reservationTables[reservationInfoPtr->type],
  402dd4:	8b 00                	mov    (%rax),%eax
    while (TMLIST_ITER_HASNEXT(&it, reservationInfoListPtr)) {
        reservation_info_t* reservationInfoPtr;
        reservation_t* reservationPtr;
        reservationInfoPtr =
            (reservation_info_t*)TMLIST_ITER_NEXT(&it, reservationInfoListPtr);
        reservationPtr =
  402dd6:	48 8b 7c c4 10       	mov    0x10(%rsp,%rax,8),%rdi
  402ddb:	e8 30 53 00 00       	callq  408110 <TMrbtree_get>
            (reservation_t*)TMMAP_FIND(reservationTables[reservationInfoPtr->type],
                                     reservationInfoPtr->id);
        if (reservationPtr == NULL) {
  402de0:	48 85 c0             	test   %rax,%rax
  402de3:	74 7b                	je     402e60 <manager_deleteCustomer+0x100>
            TM_RESTART();
        }
        status = RESERVATION_CANCEL(reservationPtr);
  402de5:	48 89 c7             	mov    %rax,%rdi
  402de8:	e8 03 09 00 00       	callq  4036f0 <reservation_cancel>
        if (status == FALSE) {
  402ded:	48 85 c0             	test   %rax,%rax
  402df0:	74 55                	je     402e47 <manager_deleteCustomer+0xe7>
            TM_RESTART();
        }
        RESERVATION_INFO_FREE(reservationInfoPtr);
  402df2:	48 89 df             	mov    %rbx,%rdi
  402df5:	e8 26 05 00 00       	callq  403320 <reservation_info_free>
    reservationTables[RESERVATION_FLIGHT] = managerPtr->flightTablePtr;

    /* Cancel this customer's reservations */
    reservationInfoListPtr = customerPtr->reservationInfoListPtr;
    TMLIST_ITER_RESET(&it, reservationInfoListPtr);
    while (TMLIST_ITER_HASNEXT(&it, reservationInfoListPtr)) {
  402dfa:	48 8d 7c 24 08       	lea    0x8(%rsp),%rdi
  402dff:	48 89 ee             	mov    %rbp,%rsi
  402e02:	e8 39 11 00 00       	callq  403f40 <TMlist_iter_hasNext>
  402e07:	48 85 c0             	test   %rax,%rax
  402e0a:	75 b4                	jne    402dc0 <manager_deleteCustomer+0x60>
            TM_RESTART();
        }
        RESERVATION_INFO_FREE(reservationInfoPtr);
    }

    status = TMMAP_REMOVE(managerPtr->customerTablePtr, customerId);
  402e0c:	49 8b 7c 24 18       	mov    0x18(%r12),%rdi
  402e11:	4c 89 f6             	mov    %r14,%rsi
  402e14:	e8 e7 4e 00 00       	callq  407d00 <TMrbtree_delete>
    if (status == FALSE) {
  402e19:	48 85 c0             	test   %rax,%rax
  402e1c:	74 5b                	je     402e79 <manager_deleteCustomer+0x119>
        TM_RESTART();
    }
    CUSTOMER_FREE(customerPtr);
  402e1e:	4c 89 ef             	mov    %r13,%rdi
  402e21:	e8 3a f1 ff ff       	callq  401f60 <customer_free>

    return TRUE;
}
  402e26:	48 83 c4 30          	add    $0x30,%rsp
    if (status == FALSE) {
        TM_RESTART();
    }
    CUSTOMER_FREE(customerPtr);

    return TRUE;
  402e2a:	b8 01 00 00 00       	mov    $0x1,%eax
}
  402e2f:	5b                   	pop    %rbx
  402e30:	5d                   	pop    %rbp
  402e31:	41 5c                	pop    %r12
  402e33:	41 5d                	pop    %r13
  402e35:	41 5e                	pop    %r14
  402e37:	c3                   	retq   
  402e38:	48 83 c4 30          	add    $0x30,%rsp
    list_iter_t it;
    bool_t status;

    customerPtr = (customer_t*)TMMAP_FIND(managerPtr->customerTablePtr, customerId);
    if (customerPtr == NULL) {
        return FALSE;
  402e3c:	31 c0                	xor    %eax,%eax
        TM_RESTART();
    }
    CUSTOMER_FREE(customerPtr);

    return TRUE;
}
  402e3e:	5b                   	pop    %rbx
  402e3f:	5d                   	pop    %rbp
  402e40:	41 5c                	pop    %r12
  402e42:	41 5d                	pop    %r13
  402e44:	41 5e                	pop    %r14
  402e46:	c3                   	retq   
        if (reservationPtr == NULL) {
            TM_RESTART();
        }
        status = RESERVATION_CANCEL(reservationPtr);
        if (status == FALSE) {
            TM_RESTART();
  402e47:	b9 40 8d 40 00       	mov    $0x408d40,%ecx
  402e4c:	ba d3 01 00 00       	mov    $0x1d3,%edx
  402e51:	be 32 8c 40 00       	mov    $0x408c32,%esi
  402e56:	bf f9 8d 40 00       	mov    $0x408df9,%edi
  402e5b:	e8 f0 dd ff ff       	callq  400c50 <__assert_fail@plt>
            (reservation_info_t*)TMLIST_ITER_NEXT(&it, reservationInfoListPtr);
        reservationPtr =
            (reservation_t*)TMMAP_FIND(reservationTables[reservationInfoPtr->type],
                                     reservationInfoPtr->id);
        if (reservationPtr == NULL) {
            TM_RESTART();
  402e60:	b9 40 8d 40 00       	mov    $0x408d40,%ecx
  402e65:	ba cf 01 00 00       	mov    $0x1cf,%edx
  402e6a:	be 32 8c 40 00       	mov    $0x408c32,%esi
  402e6f:	bf f9 8d 40 00       	mov    $0x408df9,%edi
  402e74:	e8 d7 dd ff ff       	callq  400c50 <__assert_fail@plt>
        RESERVATION_INFO_FREE(reservationInfoPtr);
    }

    status = TMMAP_REMOVE(managerPtr->customerTablePtr, customerId);
    if (status == FALSE) {
        TM_RESTART();
  402e79:	b9 40 8d 40 00       	mov    $0x408d40,%ecx
  402e7e:	ba da 01 00 00       	mov    $0x1da,%edx
  402e83:	be 32 8c 40 00       	mov    $0x408c32,%esi
  402e88:	bf f9 8d 40 00       	mov    $0x408df9,%edi
  402e8d:	e8 be dd ff ff       	callq  400c50 <__assert_fail@plt>
  402e92:	66 66 66 66 66 2e 0f 	data32 data32 data32 data32 nopw %cs:0x0(%rax,%rax,1)
  402e99:	1f 84 00 00 00 00 00 

0000000000402ea0 <manager_queryCar>:
 * -- Returns -1 if the car does not exist
 * =============================================================================
 */
long
manager_queryCar (TM_ARGDECL  manager_t* managerPtr, long carId)
{
  402ea0:	48 83 ec 08          	sub    $0x8,%rsp
queryNumFree (TM_ARGDECL  MAP_T* tablePtr, long id)
{
    long numFree = -1;
    reservation_t* reservationPtr;

    reservationPtr = (reservation_t*)TMMAP_FIND(tablePtr, id);
  402ea4:	48 8b 3f             	mov    (%rdi),%rdi
  402ea7:	e8 64 52 00 00       	callq  408110 <TMrbtree_get>
    if (reservationPtr != NULL) {
  402eac:	48 85 c0             	test   %rax,%rax
  402eaf:	74 09                	je     402eba <manager_queryCar+0x1a>
        numFree = (long)TM_SHARED_READ(reservationPtr->numFree);
  402eb1:	48 8b 40 10          	mov    0x10(%rax),%rax
 */
long
manager_queryCar (TM_ARGDECL  manager_t* managerPtr, long carId)
{
    return queryNumFree(TM_ARG  managerPtr->carTablePtr, carId);
}
  402eb5:	48 83 c4 08          	add    $0x8,%rsp
  402eb9:	c3                   	retq   
 * =============================================================================
 */
static long
queryNumFree (TM_ARGDECL  MAP_T* tablePtr, long id)
{
    long numFree = -1;
  402eba:	48 c7 c0 ff ff ff ff 	mov    $0xffffffffffffffff,%rax
  402ec1:	eb f2                	jmp    402eb5 <manager_queryCar+0x15>
  402ec3:	66 66 66 66 2e 0f 1f 	data32 data32 data32 nopw %cs:0x0(%rax,%rax,1)
  402eca:	84 00 00 00 00 00 

0000000000402ed0 <manager_queryCarPrice>:
 * -- Returns -1 if the car does not exist
 * =============================================================================
 */
long
manager_queryCarPrice (TM_ARGDECL  manager_t* managerPtr, long carId)
{
  402ed0:	48 83 ec 08          	sub    $0x8,%rsp
queryPrice (TM_ARGDECL  MAP_T* tablePtr, long id)
{
    long price = -1;
    reservation_t* reservationPtr;

    reservationPtr = (reservation_t*)TMMAP_FIND(tablePtr, id);
  402ed4:	48 8b 3f             	mov    (%rdi),%rdi
  402ed7:	e8 34 52 00 00       	callq  408110 <TMrbtree_get>
    if (reservationPtr != NULL) {
  402edc:	48 85 c0             	test   %rax,%rax
  402edf:	74 09                	je     402eea <manager_queryCarPrice+0x1a>
        price = (long)TM_SHARED_READ(reservationPtr->price);
  402ee1:	48 8b 40 20          	mov    0x20(%rax),%rax
 */
long
manager_queryCarPrice (TM_ARGDECL  manager_t* managerPtr, long carId)
{
    return queryPrice(TM_ARG  managerPtr->carTablePtr, carId);
}
  402ee5:	48 83 c4 08          	add    $0x8,%rsp
  402ee9:	c3                   	retq   
 * =============================================================================
 */
static long
queryPrice (TM_ARGDECL  MAP_T* tablePtr, long id)
{
    long price = -1;
  402eea:	48 c7 c0 ff ff ff ff 	mov    $0xffffffffffffffff,%rax
  402ef1:	eb f2                	jmp    402ee5 <manager_queryCarPrice+0x15>
  402ef3:	66 66 66 66 2e 0f 1f 	data32 data32 data32 nopw %cs:0x0(%rax,%rax,1)
  402efa:	84 00 00 00 00 00 

0000000000402f00 <manager_queryRoom>:
 * -- Returns -1 if the room does not exist
 * =============================================================================
 */
long
manager_queryRoom (TM_ARGDECL  manager_t* managerPtr, long roomId)
{
  402f00:	48 83 ec 08          	sub    $0x8,%rsp
queryNumFree (TM_ARGDECL  MAP_T* tablePtr, long id)
{
    long numFree = -1;
    reservation_t* reservationPtr;

    reservationPtr = (reservation_t*)TMMAP_FIND(tablePtr, id);
  402f04:	48 8b 7f 08          	mov    0x8(%rdi),%rdi
  402f08:	e8 03 52 00 00       	callq  408110 <TMrbtree_get>
    if (reservationPtr != NULL) {
  402f0d:	48 85 c0             	test   %rax,%rax
  402f10:	74 09                	je     402f1b <manager_queryRoom+0x1b>
        numFree = (long)TM_SHARED_READ(reservationPtr->numFree);
  402f12:	48 8b 40 10          	mov    0x10(%rax),%rax
 */
long
manager_queryRoom (TM_ARGDECL  manager_t* managerPtr, long roomId)
{
    return queryNumFree(TM_ARG  managerPtr->roomTablePtr, roomId);
}
  402f16:	48 83 c4 08          	add    $0x8,%rsp
  402f1a:	c3                   	retq   
 * =============================================================================
 */
static long
queryNumFree (TM_ARGDECL  MAP_T* tablePtr, long id)
{
    long numFree = -1;
  402f1b:	48 c7 c0 ff ff ff ff 	mov    $0xffffffffffffffff,%rax
  402f22:	eb f2                	jmp    402f16 <manager_queryRoom+0x16>
  402f24:	66 66 66 2e 0f 1f 84 	data32 data32 nopw %cs:0x0(%rax,%rax,1)
  402f2b:	00 00 00 00 00 

0000000000402f30 <manager_queryRoomPrice>:
 * -- Returns -1 if the room does not exist
 * =============================================================================
 */
long
manager_queryRoomPrice (TM_ARGDECL  manager_t* managerPtr, long roomId)
{
  402f30:	48 83 ec 08          	sub    $0x8,%rsp
queryPrice (TM_ARGDECL  MAP_T* tablePtr, long id)
{
    long price = -1;
    reservation_t* reservationPtr;

    reservationPtr = (reservation_t*)TMMAP_FIND(tablePtr, id);
  402f34:	48 8b 7f 08          	mov    0x8(%rdi),%rdi
  402f38:	e8 d3 51 00 00       	callq  408110 <TMrbtree_get>
    if (reservationPtr != NULL) {
  402f3d:	48 85 c0             	test   %rax,%rax
  402f40:	74 09                	je     402f4b <manager_queryRoomPrice+0x1b>
        price = (long)TM_SHARED_READ(reservationPtr->price);
  402f42:	48 8b 40 20          	mov    0x20(%rax),%rax
 */
long
manager_queryRoomPrice (TM_ARGDECL  manager_t* managerPtr, long roomId)
{
    return queryPrice(TM_ARG  managerPtr->roomTablePtr, roomId);
}
  402f46:	48 83 c4 08          	add    $0x8,%rsp
  402f4a:	c3                   	retq   
 * =============================================================================
 */
static long
queryPrice (TM_ARGDECL  MAP_T* tablePtr, long id)
{
    long price = -1;
  402f4b:	48 c7 c0 ff ff ff ff 	mov    $0xffffffffffffffff,%rax
  402f52:	eb f2                	jmp    402f46 <manager_queryRoomPrice+0x16>
  402f54:	66 66 66 2e 0f 1f 84 	data32 data32 nopw %cs:0x0(%rax,%rax,1)
  402f5b:	00 00 00 00 00 

0000000000402f60 <manager_queryFlight>:
 * -- Returns -1 if the flight does not exist
 * =============================================================================
 */
long
manager_queryFlight (TM_ARGDECL  manager_t* managerPtr, long flightId)
{
  402f60:	48 83 ec 08          	sub    $0x8,%rsp
queryNumFree (TM_ARGDECL  MAP_T* tablePtr, long id)
{
    long numFree = -1;
    reservation_t* reservationPtr;

    reservationPtr = (reservation_t*)TMMAP_FIND(tablePtr, id);
  402f64:	48 8b 7f 10          	mov    0x10(%rdi),%rdi
  402f68:	e8 a3 51 00 00       	callq  408110 <TMrbtree_get>
    if (reservationPtr != NULL) {
  402f6d:	48 85 c0             	test   %rax,%rax
  402f70:	74 09                	je     402f7b <manager_queryFlight+0x1b>
        numFree = (long)TM_SHARED_READ(reservationPtr->numFree);
  402f72:	48 8b 40 10          	mov    0x10(%rax),%rax
 */
long
manager_queryFlight (TM_ARGDECL  manager_t* managerPtr, long flightId)
{
    return queryNumFree(TM_ARG  managerPtr->flightTablePtr, flightId);
}
  402f76:	48 83 c4 08          	add    $0x8,%rsp
  402f7a:	c3                   	retq   
 * =============================================================================
 */
static long
queryNumFree (TM_ARGDECL  MAP_T* tablePtr, long id)
{
    long numFree = -1;
  402f7b:	48 c7 c0 ff ff ff ff 	mov    $0xffffffffffffffff,%rax
  402f82:	eb f2                	jmp    402f76 <manager_queryFlight+0x16>
  402f84:	66 66 66 2e 0f 1f 84 	data32 data32 nopw %cs:0x0(%rax,%rax,1)
  402f8b:	00 00 00 00 00 

0000000000402f90 <manager_queryFlightPrice>:
 * -- Returns -1 if the flight does not exist
 * =============================================================================
 */
long
manager_queryFlightPrice (TM_ARGDECL  manager_t* managerPtr, long flightId)
{
  402f90:	48 83 ec 08          	sub    $0x8,%rsp
queryPrice (TM_ARGDECL  MAP_T* tablePtr, long id)
{
    long price = -1;
    reservation_t* reservationPtr;

    reservationPtr = (reservation_t*)TMMAP_FIND(tablePtr, id);
  402f94:	48 8b 7f 10          	mov    0x10(%rdi),%rdi
  402f98:	e8 73 51 00 00       	callq  408110 <TMrbtree_get>
    if (reservationPtr != NULL) {
  402f9d:	48 85 c0             	test   %rax,%rax
  402fa0:	74 09                	je     402fab <manager_queryFlightPrice+0x1b>
        price = (long)TM_SHARED_READ(reservationPtr->price);
  402fa2:	48 8b 40 20          	mov    0x20(%rax),%rax
 */
long
manager_queryFlightPrice (TM_ARGDECL  manager_t* managerPtr, long flightId)
{
    return queryPrice(TM_ARG  managerPtr->flightTablePtr, flightId);
}
  402fa6:	48 83 c4 08          	add    $0x8,%rsp
  402faa:	c3                   	retq   
 * =============================================================================
 */
static long
queryPrice (TM_ARGDECL  MAP_T* tablePtr, long id)
{
    long price = -1;
  402fab:	48 c7 c0 ff ff ff ff 	mov    $0xffffffffffffffff,%rax
  402fb2:	eb f2                	jmp    402fa6 <manager_queryFlightPrice+0x16>
  402fb4:	66 66 66 2e 0f 1f 84 	data32 data32 nopw %cs:0x0(%rax,%rax,1)
  402fbb:	00 00 00 00 00 

0000000000402fc0 <manager_queryCustomerBill>:
 * -- Returns -1 if the customer does not exist
 * =============================================================================
 */
long
manager_queryCustomerBill (TM_ARGDECL  manager_t* managerPtr, long customerId)
{
  402fc0:	48 83 ec 08          	sub    $0x8,%rsp
    long bill = -1;
    customer_t* customerPtr;

    customerPtr = (customer_t*)TMMAP_FIND(managerPtr->customerTablePtr, customerId);
  402fc4:	48 8b 7f 18          	mov    0x18(%rdi),%rdi
  402fc8:	e8 43 51 00 00       	callq  408110 <TMrbtree_get>

    if (customerPtr != NULL) {
  402fcd:	48 85 c0             	test   %rax,%rax
  402fd0:	74 0e                	je     402fe0 <manager_queryCustomerBill+0x20>
        bill = CUSTOMER_GET_BILL(customerPtr);
  402fd2:	48 89 c7             	mov    %rax,%rdi
    }

    return bill;
}
  402fd5:	48 83 c4 08          	add    $0x8,%rsp
    customer_t* customerPtr;

    customerPtr = (customer_t*)TMMAP_FIND(managerPtr->customerTablePtr, customerId);

    if (customerPtr != NULL) {
        bill = CUSTOMER_GET_BILL(customerPtr);
  402fd9:	e9 62 f0 ff ff       	jmpq   402040 <customer_getBill>
  402fde:	66 90                	xchg   %ax,%ax
    }

    return bill;
}
  402fe0:	48 c7 c0 ff ff ff ff 	mov    $0xffffffffffffffff,%rax
  402fe7:	48 83 c4 08          	add    $0x8,%rsp
  402feb:	c3                   	retq   
  402fec:	0f 1f 40 00          	nopl   0x0(%rax)

0000000000402ff0 <manager_reserveCar>:
 * -- Returns TRUE on success, else FALSE
 * =============================================================================
 */
bool_t
manager_reserveCar (TM_ARGDECL  manager_t* managerPtr, long customerId, long carId)
{
  402ff0:	41 54                	push   %r12
  402ff2:	49 89 d4             	mov    %rdx,%r12
  402ff5:	55                   	push   %rbp
  402ff6:	53                   	push   %rbx
    return reserve(TM_ARG
  402ff7:	48 8b 1f             	mov    (%rdi),%rbx
         long customerId, long id, reservation_type_t type)
{
    customer_t* customerPtr;
    reservation_t* reservationPtr;

    customerPtr = (customer_t*)TMMAP_FIND(customerTablePtr, customerId);
  402ffa:	48 8b 7f 18          	mov    0x18(%rdi),%rdi
  402ffe:	e8 0d 51 00 00       	callq  408110 <TMrbtree_get>
    if (customerPtr == NULL) {
  403003:	48 85 c0             	test   %rax,%rax
         long customerId, long id, reservation_type_t type)
{
    customer_t* customerPtr;
    reservation_t* reservationPtr;

    customerPtr = (customer_t*)TMMAP_FIND(customerTablePtr, customerId);
  403006:	48 89 c5             	mov    %rax,%rbp
    if (customerPtr == NULL) {
  403009:	74 20                	je     40302b <manager_reserveCar+0x3b>
        return FALSE;
    }

    reservationPtr = (reservation_t*)TMMAP_FIND(tablePtr, id);
  40300b:	48 89 df             	mov    %rbx,%rdi
  40300e:	4c 89 e6             	mov    %r12,%rsi
  403011:	e8 fa 50 00 00       	callq  408110 <TMrbtree_get>
    if (reservationPtr == NULL) {
  403016:	48 85 c0             	test   %rax,%rax
    customerPtr = (customer_t*)TMMAP_FIND(customerTablePtr, customerId);
    if (customerPtr == NULL) {
        return FALSE;
    }

    reservationPtr = (reservation_t*)TMMAP_FIND(tablePtr, id);
  403019:	48 89 c3             	mov    %rax,%rbx
    if (reservationPtr == NULL) {
  40301c:	74 0d                	je     40302b <manager_reserveCar+0x3b>
        return FALSE;
    }

    if (!RESERVATION_MAKE(reservationPtr)) {
  40301e:	48 89 c7             	mov    %rax,%rdi
  403021:	e8 6a 05 00 00       	callq  403590 <reservation_make>
  403026:	48 85 c0             	test   %rax,%rax
  403029:	75 0d                	jne    403038 <manager_reserveCar+0x48>
    customer_t* customerPtr;
    reservation_t* reservationPtr;

    customerPtr = (customer_t*)TMMAP_FIND(customerTablePtr, customerId);
    if (customerPtr == NULL) {
        return FALSE;
  40302b:	31 c0                	xor    %eax,%eax
                   managerPtr->carTablePtr,
                   managerPtr->customerTablePtr,
                   customerId,
                   carId,
                   RESERVATION_CAR);
}
  40302d:	5b                   	pop    %rbx
  40302e:	5d                   	pop    %rbp
  40302f:	41 5c                	pop    %r12
  403031:	c3                   	retq   
  403032:	66 0f 1f 44 00 00    	nopw   0x0(%rax,%rax,1)

    if (!RESERVATION_MAKE(reservationPtr)) {
        return FALSE;
    }

    if (!CUSTOMER_ADD_RESERVATION_INFO(
  403038:	48 8b 4b 20          	mov    0x20(%rbx),%rcx
  40303c:	4c 89 e2             	mov    %r12,%rdx
  40303f:	31 f6                	xor    %esi,%esi
  403041:	48 89 ef             	mov    %rbp,%rdi
  403044:	e8 37 ef ff ff       	callq  401f80 <customer_addReservationInfo>
  403049:	48 89 c2             	mov    %rax,%rdx
            TM_RESTART();
        }
        return FALSE;
    }

    return TRUE;
  40304c:	b8 01 00 00 00       	mov    $0x1,%eax

    if (!RESERVATION_MAKE(reservationPtr)) {
        return FALSE;
    }

    if (!CUSTOMER_ADD_RESERVATION_INFO(
  403051:	48 85 d2             	test   %rdx,%rdx
  403054:	75 d7                	jne    40302d <manager_reserveCar+0x3d>
            type,
            id,
            (long)TM_SHARED_READ(reservationPtr->price)))
    {
        /* Undo previous successful reservation */
        bool_t status = RESERVATION_CANCEL(reservationPtr);
  403056:	48 89 df             	mov    %rbx,%rdi
  403059:	e8 92 06 00 00       	callq  4036f0 <reservation_cancel>
        if (status == FALSE) {
  40305e:	48 85 c0             	test   %rax,%rax
  403061:	75 c8                	jne    40302b <manager_reserveCar+0x3b>
  403063:	e8 08 dd ff ff       	callq  400d70 <reserve.part.0>
  403068:	0f 1f 84 00 00 00 00 	nopl   0x0(%rax,%rax,1)
  40306f:	00 

0000000000403070 <manager_reserveRoom>:
 * -- Returns TRUE on success, else FALSE
 * =============================================================================
 */
bool_t
manager_reserveRoom (TM_ARGDECL  manager_t* managerPtr, long customerId, long roomId)
{
  403070:	41 54                	push   %r12
  403072:	49 89 d4             	mov    %rdx,%r12
  403075:	55                   	push   %rbp
  403076:	53                   	push   %rbx
    return reserve(TM_ARG
  403077:	48 8b 5f 08          	mov    0x8(%rdi),%rbx
         long customerId, long id, reservation_type_t type)
{
    customer_t* customerPtr;
    reservation_t* reservationPtr;

    customerPtr = (customer_t*)TMMAP_FIND(customerTablePtr, customerId);
  40307b:	48 8b 7f 18          	mov    0x18(%rdi),%rdi
  40307f:	e8 8c 50 00 00       	callq  408110 <TMrbtree_get>
    if (customerPtr == NULL) {
  403084:	48 85 c0             	test   %rax,%rax
         long customerId, long id, reservation_type_t type)
{
    customer_t* customerPtr;
    reservation_t* reservationPtr;

    customerPtr = (customer_t*)TMMAP_FIND(customerTablePtr, customerId);
  403087:	48 89 c5             	mov    %rax,%rbp
    if (customerPtr == NULL) {
  40308a:	74 20                	je     4030ac <manager_reserveRoom+0x3c>
        return FALSE;
    }

    reservationPtr = (reservation_t*)TMMAP_FIND(tablePtr, id);
  40308c:	48 89 df             	mov    %rbx,%rdi
  40308f:	4c 89 e6             	mov    %r12,%rsi
  403092:	e8 79 50 00 00       	callq  408110 <TMrbtree_get>
    if (reservationPtr == NULL) {
  403097:	48 85 c0             	test   %rax,%rax
    customerPtr = (customer_t*)TMMAP_FIND(customerTablePtr, customerId);
    if (customerPtr == NULL) {
        return FALSE;
    }

    reservationPtr = (reservation_t*)TMMAP_FIND(tablePtr, id);
  40309a:	48 89 c3             	mov    %rax,%rbx
    if (reservationPtr == NULL) {
  40309d:	74 0d                	je     4030ac <manager_reserveRoom+0x3c>
        return FALSE;
    }

    if (!RESERVATION_MAKE(reservationPtr)) {
  40309f:	48 89 c7             	mov    %rax,%rdi
  4030a2:	e8 e9 04 00 00       	callq  403590 <reservation_make>
  4030a7:	48 85 c0             	test   %rax,%rax
  4030aa:	75 0c                	jne    4030b8 <manager_reserveRoom+0x48>
    customer_t* customerPtr;
    reservation_t* reservationPtr;

    customerPtr = (customer_t*)TMMAP_FIND(customerTablePtr, customerId);
    if (customerPtr == NULL) {
        return FALSE;
  4030ac:	31 c0                	xor    %eax,%eax
                   managerPtr->roomTablePtr,
                   managerPtr->customerTablePtr,
                   customerId,
                   roomId,
                   RESERVATION_ROOM);
}
  4030ae:	5b                   	pop    %rbx
  4030af:	5d                   	pop    %rbp
  4030b0:	41 5c                	pop    %r12
  4030b2:	c3                   	retq   
  4030b3:	0f 1f 44 00 00       	nopl   0x0(%rax,%rax,1)

    if (!RESERVATION_MAKE(reservationPtr)) {
        return FALSE;
    }

    if (!CUSTOMER_ADD_RESERVATION_INFO(
  4030b8:	48 8b 4b 20          	mov    0x20(%rbx),%rcx
  4030bc:	4c 89 e2             	mov    %r12,%rdx
  4030bf:	be 02 00 00 00       	mov    $0x2,%esi
  4030c4:	48 89 ef             	mov    %rbp,%rdi
  4030c7:	e8 b4 ee ff ff       	callq  401f80 <customer_addReservationInfo>
  4030cc:	48 89 c2             	mov    %rax,%rdx
            TM_RESTART();
        }
        return FALSE;
    }

    return TRUE;
  4030cf:	b8 01 00 00 00       	mov    $0x1,%eax

    if (!RESERVATION_MAKE(reservationPtr)) {
        return FALSE;
    }

    if (!CUSTOMER_ADD_RESERVATION_INFO(
  4030d4:	48 85 d2             	test   %rdx,%rdx
  4030d7:	75 d5                	jne    4030ae <manager_reserveRoom+0x3e>
            type,
            id,
            (long)TM_SHARED_READ(reservationPtr->price)))
    {
        /* Undo previous successful reservation */
        bool_t status = RESERVATION_CANCEL(reservationPtr);
  4030d9:	48 89 df             	mov    %rbx,%rdi
  4030dc:	e8 0f 06 00 00       	callq  4036f0 <reservation_cancel>
        if (status == FALSE) {
  4030e1:	48 85 c0             	test   %rax,%rax
  4030e4:	75 c6                	jne    4030ac <manager_reserveRoom+0x3c>
  4030e6:	e8 85 dc ff ff       	callq  400d70 <reserve.part.0>
  4030eb:	0f 1f 44 00 00       	nopl   0x0(%rax,%rax,1)

00000000004030f0 <manager_reserveFlight>:
 * =============================================================================
 */
bool_t
manager_reserveFlight (TM_ARGDECL
                       manager_t* managerPtr, long customerId, long flightId)
{
  4030f0:	41 54                	push   %r12
  4030f2:	49 89 d4             	mov    %rdx,%r12
  4030f5:	55                   	push   %rbp
  4030f6:	53                   	push   %rbx
    return reserve(TM_ARG
  4030f7:	48 8b 5f 10          	mov    0x10(%rdi),%rbx
         long customerId, long id, reservation_type_t type)
{
    customer_t* customerPtr;
    reservation_t* reservationPtr;

    customerPtr = (customer_t*)TMMAP_FIND(customerTablePtr, customerId);
  4030fb:	48 8b 7f 18          	mov    0x18(%rdi),%rdi
  4030ff:	e8 0c 50 00 00       	callq  408110 <TMrbtree_get>
    if (customerPtr == NULL) {
  403104:	48 85 c0             	test   %rax,%rax
         long customerId, long id, reservation_type_t type)
{
    customer_t* customerPtr;
    reservation_t* reservationPtr;

    customerPtr = (customer_t*)TMMAP_FIND(customerTablePtr, customerId);
  403107:	48 89 c5             	mov    %rax,%rbp
    if (customerPtr == NULL) {
  40310a:	74 20                	je     40312c <manager_reserveFlight+0x3c>
        return FALSE;
    }

    reservationPtr = (reservation_t*)TMMAP_FIND(tablePtr, id);
  40310c:	48 89 df             	mov    %rbx,%rdi
  40310f:	4c 89 e6             	mov    %r12,%rsi
  403112:	e8 f9 4f 00 00       	callq  408110 <TMrbtree_get>
    if (reservationPtr == NULL) {
  403117:	48 85 c0             	test   %rax,%rax
    customerPtr = (customer_t*)TMMAP_FIND(customerTablePtr, customerId);
    if (customerPtr == NULL) {
        return FALSE;
    }

    reservationPtr = (reservation_t*)TMMAP_FIND(tablePtr, id);
  40311a:	48 89 c3             	mov    %rax,%rbx
    if (reservationPtr == NULL) {
